ccollections
defaultdict
p0
(c__main__
dd
p1
tp2
Rp3
(cnumpy.core.multiarray
scalar
p4
(cnumpy
dtype
p5
(S'i8'
p6
I0
I1
tp7
Rp8
(I3
S'<'
p9
NNNI-1
I-1
I0
tp10
bS'\x04\x00\x00\x00\x00\x00\x00\x00'
p11
tp12
Rp13
g4
(g8
S'\x03\x00\x00\x00\x00\x00\x00\x00'
p14
tp15
Rp16
g4
(g8
S'\x04\x00\x00\x00\x00\x00\x00\x00'
p17
tp18
Rp19
tp20
g0
(c__builtin__
int
p21
tp22
Rp23
g20
I1
s(g4
(g8
S'\x03\x00\x00\x00\x00\x00\x00\x00'
p24
tp25
Rp26
g4
(g8
S'\x03\x00\x00\x00\x00\x00\x00\x00'
p27
tp28
Rp29
g4
(g8
S'\x03\x00\x00\x00\x00\x00\x00\x00'
p30
tp31
Rp32
tp33
I15
s(g4
(g8
S'\x02\x00\x00\x00\x00\x00\x00\x00'
p34
tp35
Rp36
g4
(g8
S'\x02\x00\x00\x00\x00\x00\x00\x00'
p37
tp38
Rp39
g4
(g8
S'\x02\x00\x00\x00\x00\x00\x00\x00'
p40
tp41
Rp42
tp43
I-38
s(g4
(g8
S'\x02\x00\x00\x00\x00\x00\x00\x00'
p44
tp45
Rp46
g4
(g8
S'\x01\x00\x00\x00\x00\x00\x00\x00'
p47
tp48
Rp49
g4
(g8
S'\x01\x00\x00\x00\x00\x00\x00\x00'
p50
tp51
Rp52
tp53
I-6
s(g4
(g8
S'\x04\x00\x00\x00\x00\x00\x00\x00'
p54
tp55
Rp56
g4
(g8
S'\x04\x00\x00\x00\x00\x00\x00\x00'
p57
tp58
Rp59
g4
(g8
S'\x04\x00\x00\x00\x00\x00\x00\x00'
p60
tp61
Rp62
tp63
I-1
s(g4
(g8
S'\x03\x00\x00\x00\x00\x00\x00\x00'
p64
tp65
Rp66
g4
(g8
S'\x02\x00\x00\x00\x00\x00\x00\x00'
p67
tp68
Rp69
g4
(g8
S'\x02\x00\x00\x00\x00\x00\x00\x00'
p70
tp71
Rp72
tp73
I9
s(g4
(g8
S'\x04\x00\x00\x00\x00\x00\x00\x00'
p74
tp75
Rp76
g4
(g8
S'\x03\x00\x00\x00\x00\x00\x00\x00'
p77
tp78
Rp79
g4
(g8
S'\x03\x00\x00\x00\x00\x00\x00\x00'
p80
tp81
Rp82
tp83
I-3
s(g4
(g8
S'\x02\x00\x00\x00\x00\x00\x00\x00'
p84
tp85
Rp86
g4
(g8
S'\x01\x00\x00\x00\x00\x00\x00\x00'
p87
tp88
Rp89
g4
(g8
S'\x02\x00\x00\x00\x00\x00\x00\x00'
p90
tp91
Rp92
tp93
I2
s(g4
(g8
S'\x03\x00\x00\x00\x00\x00\x00\x00'
p94
tp95
Rp96
g4
(g8
S'\x02\x00\x00\x00\x00\x00\x00\x00'
p97
tp98
Rp99
g4
(g8
S'\x03\x00\x00\x00\x00\x00\x00\x00'
p100
tp101
Rp102
tp103
I-3
s(g4
(g8
S'\x01\x00\x00\x00\x00\x00\x00\x00'
p104
tp105
Rp106
g4
(g8
S'\x01\x00\x00\x00\x00\x00\x00\x00'
p107
tp108
Rp109
g4
(g8
S'\x01\x00\x00\x00\x00\x00\x00\x00'
p110
tp111
Rp112
tp113
I24
s(g4
(g8
S'\x01\x00\x00\x00\x00\x00\x00\x00'
p114
tp115
Rp116
g4
(g8
S'\x01\x00\x00\x00\x00\x00\x00\x00'
p117
tp118
Rp119
g4
(g8
S'\x02\x00\x00\x00\x00\x00\x00\x00'
p120
tp121
Rp122
tp123
I-6
s(g4
(g8
S'\x02\x00\x00\x00\x00\x00\x00\x00'
p124
tp125
Rp126
g4
(g8
S'\x02\x00\x00\x00\x00\x00\x00\x00'
p127
tp128
Rp129
g4
(g8
S'\x03\x00\x00\x00\x00\x00\x00\x00'
p130
tp131
Rp132
tp133
I9
s(g4
(g8
S'\x03\x00\x00\x00\x00\x00\x00\x00'
p134
tp135
Rp136
g4
(g8
S'\x03\x00\x00\x00\x00\x00\x00\x00'
p137
tp138
Rp139
g4
(g8
S'\x04\x00\x00\x00\x00\x00\x00\x00'
p140
tp141
Rp142
tp143
I-3
ss(g4
(g8
S'\x03\x00\x00\x00\x00\x00\x00\x00'
p144
tp145
Rp146
g4
(g8
S'\x00\x00\x00\x00\x00\x00\x00\x00'
p147
tp148
Rp149
g4
(g8
S'\x02\x00\x00\x00\x00\x00\x00\x00'
p150
tp151
Rp152
tp153
g0
(g21
tp154
Rp155
g153
I1
sg43
I-12
s(g4
(g8
S'\x02\x00\x00\x00\x00\x00\x00\x00'
p156
tp157
Rp158
g4
(g8
S'\x00\x00\x00\x00\x00\x00\x00\x00'
p159
tp160
Rp161
g4
(g8
S'\x02\x00\x00\x00\x00\x00\x00\x00'
p162
tp163
Rp164
tp165
I-3
s(g4
(g8
S'\x03\x00\x00\x00\x00\x00\x00\x00'
p166
tp167
Rp168
g4
(g8
S'\x01\x00\x00\x00\x00\x00\x00\x00'
p169
tp170
Rp171
g4
(g8
S'\x01\x00\x00\x00\x00\x00\x00\x00'
p172
tp173
Rp174
tp175
I6
s(g4
(g8
S'\x02\x00\x00\x00\x00\x00\x00\x00'
p176
tp177
Rp178
g4
(g8
S'\x00\x00\x00\x00\x00\x00\x00\x00'
p179
tp180
Rp181
g4
(g8
S'\x01\x00\x00\x00\x00\x00\x00\x00'
p182
tp183
Rp184
tp185
I3
sg53
I-24
sg123
I-12
sg73
I6
s(g4
(g8
S'\x03\x00\x00\x00\x00\x00\x00\x00'
p186
tp187
Rp188
g4
(g8
S'\x01\x00\x00\x00\x00\x00\x00\x00'
p189
tp190
Rp191
g4
(g8
S'\x02\x00\x00\x00\x00\x00\x00\x00'
p192
tp193
Rp194
tp195
I-6
sg93
I18
s(g4
(g8
S'\x03\x00\x00\x00\x00\x00\x00\x00'
p196
tp197
Rp198
g4
(g8
S'\x00\x00\x00\x00\x00\x00\x00\x00'
p199
tp200
Rp201
g4
(g8
S'\x01\x00\x00\x00\x00\x00\x00\x00'
p202
tp203
Rp204
tp205
I-1
sg113
I24
s(g4
(g8
S'\x01\x00\x00\x00\x00\x00\x00\x00'
p206
tp207
Rp208
g4
(g8
S'\x00\x00\x00\x00\x00\x00\x00\x00'
p209
tp210
Rp211
g4
(g8
S'\x01\x00\x00\x00\x00\x00\x00\x00'
p212
tp213
Rp214
tp215
I-2
s(g4
(g8
S'\x01\x00\x00\x00\x00\x00\x00\x00'
p216
tp217
Rp218
g4
(g8
S'\x00\x00\x00\x00\x00\x00\x00\x00'
p219
tp220
Rp221
g4
(g8
S'\x02\x00\x00\x00\x00\x00\x00\x00'
p222
tp223
Rp224
tp225
I2
ss(g4
(g8
S'\x04\x00\x00\x00\x00\x00\x00\x00'
p226
tp227
Rp228
g4
(g8
S'\x02\x00\x00\x00\x00\x00\x00\x00'
p229
tp230
Rp231
g4
(g8
S'\x02\x00\x00\x00\x00\x00\x00\x00'
p232
tp233
Rp234
tp235
g0
(g21
tp236
Rp237
g43
I6
sg235
I1
sg175
I-1
sg53
I5
sg73
I-5
sg113
I-6
ss(g4
(g8
S'\x02\x00\x00\x00\x00\x00\x00\x00'
p238
tp239
Rp240
g4
(g8
S'\x02\x00\x00\x00\x00\x00\x00\x00'
p241
tp242
Rp243
g4
(g8
S'\x05\x00\x00\x00\x00\x00\x00\x00'
p244
tp245
Rp246
tp247
g0
(g21
tp248
Rp249
g43
I-24
sg247
I1
s(g4
(g8
S'\x01\x00\x00\x00\x00\x00\x00\x00'
p250
tp251
Rp252
g4
(g8
S'\x01\x00\x00\x00\x00\x00\x00\x00'
p253
tp254
Rp255
g4
(g8
S'\x03\x00\x00\x00\x00\x00\x00\x00'
p256
tp257
Rp258
tp259
I9
s(g4
(g8
S'\x02\x00\x00\x00\x00\x00\x00\x00'
p260
tp261
Rp262
g4
(g8
S'\x02\x00\x00\x00\x00\x00\x00\x00'
p263
tp264
Rp265
g4
(g8
S'\x04\x00\x00\x00\x00\x00\x00\x00'
p266
tp267
Rp268
tp269
I-9
sg123
I-26
s(g4
(g8
S'\x01\x00\x00\x00\x00\x00\x00\x00'
p270
tp271
Rp272
g4
(g8
S'\x01\x00\x00\x00\x00\x00\x00\x00'
p273
tp274
Rp275
g4
(g8
S'\x04\x00\x00\x00\x00\x00\x00\x00'
p276
tp277
Rp278
tp279
I-1
sg113
I24
sg133
I26
ss(g4
(g8
S'\x01\x00\x00\x00\x00\x00\x00\x00'
p280
tp281
Rp282
g4
(g8
S'\x00\x00\x00\x00\x00\x00\x00\x00'
p283
tp284
Rp285
g4
(g8
S'\x03\x00\x00\x00\x00\x00\x00\x00'
p286
tp287
Rp288
tp289
g0
(g21
tp290
Rp291
g289
I1
sg259
I-3
sg215
I2
sg113
I-6
sg123
I9
sg225
I-3
ssg269
g0
(g21
tp292
Rp293
g43
I6
sg259
I-1
sg269
I1
sg123
I5
sg113
I-6
sg133
I-5
ss(g4
(g8
S'\x04\x00\x00\x00\x00\x00\x00\x00'
p294
tp295
Rp296
g4
(g8
S'\x03\x00\x00\x00\x00\x00\x00\x00'
p297
tp298
Rp299
g4
(g8
S'\x05\x00\x00\x00\x00\x00\x00\x00'
p300
tp301
Rp302
tp303
g0
(g21
tp304
Rp305
g20
I-7
sg33
I-84
s(g4
(g8
S'\x02\x00\x00\x00\x00\x00\x00\x00'
p306
tp307
Rp308
g4
(g8
S'\x01\x00\x00\x00\x00\x00\x00\x00'
p309
tp310
Rp311
g4
(g8
S'\x03\x00\x00\x00\x00\x00\x00\x00'
p312
tp313
Rp314
tp315
I2
sg269
I9
sg303
I1
sg43
I196
s(g4
(g8
S'\x04\x00\x00\x00\x00\x00\x00\x00'
p316
tp317
Rp318
g4
(g8
S'\x04\x00\x00\x00\x00\x00\x00\x00'
p319
tp320
Rp321
g4
(g8
S'\x05\x00\x00\x00\x00\x00\x00\x00'
p322
tp323
Rp324
tp325
I-2
sg53
I24
s(g4
(g8
S'\x03\x00\x00\x00\x00\x00\x00\x00'
p326
tp327
Rp328
g4
(g8
S'\x03\x00\x00\x00\x00\x00\x00\x00'
p329
tp330
Rp331
g4
(g8
S'\x05\x00\x00\x00\x00\x00\x00\x00'
p332
tp333
Rp334
tp335
I-3
sg63
I8
sg259
I-6
sg73
I-36
sg83
I12
sg93
I-14
sg103
I21
sg113
I-120
sg123
I54
s(g4
(g8
S'\x03\x00\x00\x00\x00\x00\x00\x00'
p336
tp337
Rp338
g4
(g8
S'\x02\x00\x00\x00\x00\x00\x00\x00'
p339
tp340
Rp341
g4
(g8
S'\x04\x00\x00\x00\x00\x00\x00\x00'
p342
tp343
Rp344
tp345
I-3
sg133
I-85
sg143
I33
ss(g4
(g8
S'\x03\x00\x00\x00\x00\x00\x00\x00'
p346
tp347
Rp348
g4
(g8
S'\x00\x00\x00\x00\x00\x00\x00\x00'
p349
tp350
Rp351
g4
(g8
S'\x04\x00\x00\x00\x00\x00\x00\x00'
p352
tp353
Rp354
tp355
g0
(g21
tp356
Rp357
g153
I11
sg289
I-12
s(g4
(g8
S'\x03\x00\x00\x00\x00\x00\x00\x00'
p358
tp359
Rp360
g4
(g8
S'\x00\x00\x00\x00\x00\x00\x00\x00'
p361
tp362
Rp363
g4
(g8
S'\x03\x00\x00\x00\x00\x00\x00\x00'
p364
tp365
Rp366
tp367
I-6
sg269
I-72
sg355
I1
sg215
I-12
s(g4
(g8
S'\x02\x00\x00\x00\x00\x00\x00\x00'
p368
tp369
Rp370
g4
(g8
S'\x00\x00\x00\x00\x00\x00\x00\x00'
p371
tp372
Rp373
g4
(g8
S'\x03\x00\x00\x00\x00\x00\x00\x00'
p374
tp375
Rp376
tp377
I18
sg133
I432
sg33
I72
s(g4
(g8
S'\x02\x00\x00\x00\x00\x00\x00\x00'
p378
tp379
Rp380
g4
(g8
S'\x00\x00\x00\x00\x00\x00\x00\x00'
p381
tp382
Rp383
g4
(g8
S'\x04\x00\x00\x00\x00\x00\x00\x00'
p384
tp385
Rp386
tp387
I-3
s(g4
(g8
S'\x01\x00\x00\x00\x00\x00\x00\x00'
p388
tp389
Rp390
g4
(g8
S'\x00\x00\x00\x00\x00\x00\x00\x00'
p391
tp392
Rp393
g4
(g8
S'\x04\x00\x00\x00\x00\x00\x00\x00'
p394
tp395
Rp396
tp397
I2
s(g4
(g8
S'\x03\x00\x00\x00\x00\x00\x00\x00'
p398
tp399
Rp400
g4
(g8
S'\x01\x00\x00\x00\x00\x00\x00\x00'
p401
tp402
Rp403
g4
(g8
S'\x04\x00\x00\x00\x00\x00\x00\x00'
p404
tp405
Rp406
tp407
I-12
sg73
I216
sg143
I-24
s(g4
(g8
S'\x03\x00\x00\x00\x00\x00\x00\x00'
p408
tp409
Rp410
g4
(g8
S'\x01\x00\x00\x00\x00\x00\x00\x00'
p411
tp412
Rp413
g4
(g8
S'\x03\x00\x00\x00\x00\x00\x00\x00'
p414
tp415
Rp416
tp417
I72
sg103
I-180
sg195
I-132
sg175
I72
sg185
I18
s(g4
(g8
S'\x02\x00\x00\x00\x00\x00\x00\x00'
p418
tp419
Rp420
g4
(g8
S'\x01\x00\x00\x00\x00\x00\x00\x00'
p421
tp422
Rp423
g4
(g8
S'\x04\x00\x00\x00\x00\x00\x00\x00'
p424
tp425
Rp426
tp427
I36
sg165
I-33
sg93
I576
sg113
I720
sg345
I36
sg315
I-252
sg43
I-648
sg259
I216
sg53
I-432
sg123
I-672
sg205
I-6
sg225
I22
sg279
I-24
ssg215
g0
(g21
tp428
Rp429
g113
I-1
sg215
I1
ss(g4
(g8
S'\x01\x00\x00\x00\x00\x00\x00\x00'
p430
tp431
Rp432
g4
(g8
S'\x00\x00\x00\x00\x00\x00\x00\x00'
p433
tp434
Rp435
g4
(g8
S'\x05\x00\x00\x00\x00\x00\x00\x00'
p436
tp437
Rp438
tp439
g0
(g21
tp440
Rp441
g289
I35
sg397
I-10
sg259
I-175
sg439
I1
sg123
I250
sg279
I50
s(g4
(g8
S'\x01\x00\x00\x00\x00\x00\x00\x00'
p442
tp443
Rp444
g4
(g8
S'\x01\x00\x00\x00\x00\x00\x00\x00'
p445
tp446
Rp447
g4
(g8
S'\x05\x00\x00\x00\x00\x00\x00\x00'
p448
tp449
Rp450
tp451
I-5
sg113
I-120
sg215
I24
sg225
I-50
ss(g4
(g8
S'\x04\x00\x00\x00\x00\x00\x00\x00'
p452
tp453
Rp454
g4
(g8
S'\x00\x00\x00\x00\x00\x00\x00\x00'
p455
tp456
Rp457
g4
(g8
S'\x03\x00\x00\x00\x00\x00\x00\x00'
p458
tp459
Rp460
tp461
g0
(g21
tp462
Rp463
g153
I18
sg289
I-6
sg235
I-72
sg367
I-6
sg215
I-12
sg461
I1
sg83
I-24
s(g4
(g8
S'\x04\x00\x00\x00\x00\x00\x00\x00'
p464
tp465
Rp466
g4
(g8
S'\x00\x00\x00\x00\x00\x00\x00\x00'
p467
tp468
Rp469
g4
(g8
S'\x02\x00\x00\x00\x00\x00\x00\x00'
p470
tp471
Rp472
tp473
I-3
sg377
I11
sg133
I216
sg33
I72
sg73
I432
sg185
I22
sg103
I-180
sg195
I-252
s(g4
(g8
S'\x04\x00\x00\x00\x00\x00\x00\x00'
p474
tp475
Rp476
g4
(g8
S'\x00\x00\x00\x00\x00\x00\x00\x00'
p477
tp478
Rp479
g4
(g8
S'\x01\x00\x00\x00\x00\x00\x00\x00'
p480
tp481
Rp482
tp483
I2
sg175
I216
sg417
I72
sg165
I-33
s(g4
(g8
S'\x04\x00\x00\x00\x00\x00\x00\x00'
p484
tp485
Rp486
g4
(g8
S'\x01\x00\x00\x00\x00\x00\x00\x00'
p487
tp488
Rp489
g4
(g8
S'\x01\x00\x00\x00\x00\x00\x00\x00'
p490
tp491
Rp492
tp493
I-24
sg93
I576
sg113
I720
s(g4
(g8
S'\x04\x00\x00\x00\x00\x00\x00\x00'
p494
tp495
Rp496
g4
(g8
S'\x01\x00\x00\x00\x00\x00\x00\x00'
p497
tp498
Rp499
g4
(g8
S'\x02\x00\x00\x00\x00\x00\x00\x00'
p500
tp501
Rp502
tp503
I36
sg315
I-132
sg43
I-648
s(g4
(g8
S'\x04\x00\x00\x00\x00\x00\x00\x00'
p504
tp505
Rp506
g4
(g8
S'\x01\x00\x00\x00\x00\x00\x00\x00'
p507
tp508
Rp509
g4
(g8
S'\x03\x00\x00\x00\x00\x00\x00\x00'
p510
tp511
Rp512
tp513
I-12
sg259
I72
sg53
I-672
sg123
I-432
sg205
I-12
sg225
I18
s(g4
(g8
S'\x04\x00\x00\x00\x00\x00\x00\x00'
p514
tp515
Rp516
g4
(g8
S'\x02\x00\x00\x00\x00\x00\x00\x00'
p517
tp518
Rp519
g4
(g8
S'\x03\x00\x00\x00\x00\x00\x00\x00'
p520
tp521
Rp522
tp523
I36
ss(g4
(g8
S'\x05\x00\x00\x00\x00\x00\x00\x00'
p524
tp525
Rp526
g4
(g8
S'\x03\x00\x00\x00\x00\x00\x00\x00'
p527
tp528
Rp529
g4
(g8
S'\x04\x00\x00\x00\x00\x00\x00\x00'
p530
tp531
Rp532
tp533
g0
(g21
tp534
Rp535
g20
I-7
sg33
I-84
sg533
I1
sg175
I-6
sg43
I196
s(g4
(g8
S'\x05\x00\x00\x00\x00\x00\x00\x00'
p536
tp537
Rp538
g4
(g8
S'\x04\x00\x00\x00\x00\x00\x00\x00'
p539
tp540
Rp541
g4
(g8
S'\x04\x00\x00\x00\x00\x00\x00\x00'
p542
tp543
Rp544
tp545
I-2
sg53
I54
s(g4
(g8
S'\x05\x00\x00\x00\x00\x00\x00\x00'
p546
tp547
Rp548
g4
(g8
S'\x03\x00\x00\x00\x00\x00\x00\x00'
p549
tp550
Rp551
g4
(g8
S'\x03\x00\x00\x00\x00\x00\x00\x00'
p552
tp553
Rp554
tp555
I-3
sg63
I8
sg73
I-85
sg235
I9
sg83
I33
sg93
I-14
sg195
I2
sg103
I21
sg113
I-120
sg123
I24
sg523
I-3
sg133
I-36
sg143
I12
ssg83
g0
(g21
tp556
Rp557
g33
I-3
sg43
I9
sg53
I2
sg73
I-3
sg83
I1
sg113
I-6
ssg473
g0
(g21
tp558
Rp559
g153
I-6
sg43
I72
sg53
I148
sg175
I-60
sg93
I-88
sg165
I11
sg225
I-6
sg123
I48
sg235
I12
sg73
I-60
sg483
I-1
sg493
I8
sg185
I-11
sg205
I6
sg473
I1
sg113
I-120
sg215
I6
sg503
I-8
sg195
I48
ss(g4
(g8
S'\x05\x00\x00\x00\x00\x00\x00\x00'
p560
tp561
Rp562
g4
(g8
S'\x01\x00\x00\x00\x00\x00\x00\x00'
p563
tp564
Rp565
g4
(g8
S'\x04\x00\x00\x00\x00\x00\x00\x00'
p566
tp567
Rp568
tp569
g0
(g21
tp570
Rp571
g20
I-252
sg235
I972
sg269
I288
sg533
I36
sg83
I900
sg569
I1
sg123
I2568
s(g4
(g8
S'\x05\x00\x00\x00\x00\x00\x00\x00'
p572
tp573
Rp574
g4
(g8
S'\x02\x00\x00\x00\x00\x00\x00\x00'
p575
tp576
Rp577
g4
(g8
S'\x02\x00\x00\x00\x00\x00\x00\x00'
p578
tp579
Rp580
tp581
I-72
sg133
I-2736
sg33
I-1872
s(g4
(g8
S'\x05\x00\x00\x00\x00\x00\x00\x00'
p582
tp583
Rp584
g4
(g8
S'\x02\x00\x00\x00\x00\x00\x00\x00'
p585
tp586
Rp587
g4
(g8
S'\x03\x00\x00\x00\x00\x00\x00\x00'
p588
tp589
Rp590
tp591
I60
sg503
I-170
s(g4
(g8
S'\x04\x00\x00\x00\x00\x00\x00\x00'
p592
tp593
Rp594
g4
(g8
S'\x01\x00\x00\x00\x00\x00\x00\x00'
p595
tp596
Rp597
g4
(g8
S'\x04\x00\x00\x00\x00\x00\x00\x00'
p598
tp599
Rp600
tp601
I-10
s(g4
(g8
S'\x05\x00\x00\x00\x00\x00\x00\x00'
p602
tp603
Rp604
g4
(g8
S'\x01\x00\x00\x00\x00\x00\x00\x00'
p605
tp606
Rp607
g4
(g8
S'\x01\x00\x00\x00\x00\x00\x00\x00'
p608
tp609
Rp610
tp611
I-6
sg407
I35
sg73
I-4404
sg143
I432
sg417
I-318
sg103
I2316
s(g4
(g8
S'\x05\x00\x00\x00\x00\x00\x00\x00'
p612
tp613
Rp614
g4
(g8
S'\x01\x00\x00\x00\x00\x00\x00\x00'
p615
tp616
Rp617
g4
(g8
S'\x03\x00\x00\x00\x00\x00\x00\x00'
p618
tp619
Rp620
tp621
I-6
sg195
I997
s(g4
(g8
S'\x05\x00\x00\x00\x00\x00\x00\x00'
p622
tp623
Rp624
g4
(g8
S'\x01\x00\x00\x00\x00\x00\x00\x00'
p625
tp626
Rp627
g4
(g8
S'\x02\x00\x00\x00\x00\x00\x00\x00'
p628
tp629
Rp630
tp631
I11
sg175
I-1074
sg427
I-50
sg555
I-108
sg493
I132
sg93
I-2614
s(g4
(g8
S'\x04\x00\x00\x00\x00\x00\x00\x00'
p632
tp633
Rp634
g4
(g8
S'\x02\x00\x00\x00\x00\x00\x00\x00'
p635
tp636
Rp637
g4
(g8
S'\x04\x00\x00\x00\x00\x00\x00\x00'
p638
tp639
Rp640
tp641
I108
sg113
I-5040
sg545
I-24
sg315
I612
sg345
I-312
sg43
I6672
sg513
I72
sg259
I-432
sg53
I3828
sg63
I96
s(g4
(g8
S'\x05\x00\x00\x00\x00\x00\x00\x00'
p642
tp643
Rp644
g4
(g8
S'\x02\x00\x00\x00\x00\x00\x00\x00'
p645
tp646
Rp647
g4
(g8
S'\x04\x00\x00\x00\x00\x00\x00\x00'
p648
tp649
Rp650
tp651
I-12
sg523
I-648
sg279
I24
ss(g4
(g8
S'\x02\x00\x00\x00\x00\x00\x00\x00'
p652
tp653
Rp654
g4
(g8
S'\x00\x00\x00\x00\x00\x00\x00\x00'
p655
tp656
Rp657
g4
(g8
S'\x05\x00\x00\x00\x00\x00\x00\x00'
p658
tp659
Rp660
tp661
g0
(g21
tp662
Rp663
g289
I-35
sg247
I20
sg269
I-180
sg215
I-24
sg661
I1
sg113
I720
sg387
I-10
sg397
I10
sg439
I-1
sg185
I24
sg377
I35
sg427
I100
sg165
I-50
s(g4
(g8
S'\x02\x00\x00\x00\x00\x00\x00\x00'
p664
tp665
Rp666
g4
(g8
S'\x01\x00\x00\x00\x00\x00\x00\x00'
p667
tp668
Rp669
g4
(g8
S'\x05\x00\x00\x00\x00\x00\x00\x00'
p670
tp671
Rp672
tp673
I-10
sg93
I500
sg133
I520
sg315
I-350
sg43
I-480
sg259
I530
sg53
I-240
sg123
I-1020
sg451
I10
sg225
I50
sg279
I-120
ssg63
g0
(g21
tp674
Rp675
g33
I-6
sg43
I11
sg113
I-6
sg63
I1
ssg581
g0
(g21
tp676
Rp677
g43
I-24
sg235
I-9
sg175
I9
sg53
I-26
sg73
I26
sg493
I-1
sg113
I24
sg581
I1
ssg133
g0
(g21
tp678
Rp679
g43
I-2
sg133
I1
sg113
I2
sg123
I-1
ssg33
g0
(g21
tp680
Rp681
g33
I1
sg43
I-3
sg113
I2
ssg387
g0
(g21
tp682
Rp683
g269
I12
sg387
I1
sg315
I48
sg43
I72
sg397
I-1
sg185
I-6
sg289
I6
sg259
I-60
sg53
I48
sg215
I6
sg427
I-8
sg279
I8
sg165
I11
sg93
I-88
sg133
I-60
sg377
I-6
sg113
I-120
sg123
I148
sg225
I-11
ssg591
g0
(g21
tp684
Rp685
g33
I-36
sg43
I156
sg591
I1
sg175
I-24
sg93
I-26
sg503
I-1
sg53
I94
sg555
I-3
sg123
I24
sg73
I-115
sg235
I27
sg83
I21
sg195
I9
sg581
I-2
sg103
I26
sg113
I-120
sg523
I-9
sg133
I-24
sg493
I2
ssg397
g0
(g21
tp686
Rp687
g289
I-6
sg397
I1
sg259
I24
sg123
I-44
sg279
I-4
sg113
I24
sg215
I-6
sg225
I11
ss(g4
(g8
S'\x03\x00\x00\x00\x00\x00\x00\x00'
p688
tp689
Rp690
g4
(g8
S'\x01\x00\x00\x00\x00\x00\x00\x00'
p691
tp692
Rp693
g4
(g8
S'\x05\x00\x00\x00\x00\x00\x00\x00'
p694
tp695
Rp696
tp697
g0
(g21
tp698
Rp699
g247
I16
sg269
I-180
sg113
I720
sg33
I144
sg697
I1
sg335
I12
sg407
I-10
sg73
I192
sg143
I-84
sg417
I35
sg103
I-208
sg195
I-50
sg175
I24
sg427
I38
sg673
I-3
sg93
I358
sg133
I668
sg345
I72
sg315
I-177
sg43
I-816
s(g4
(g8
S'\x03\x00\x00\x00\x00\x00\x00\x00'
p700
tp701
Rp702
g4
(g8
S'\x02\x00\x00\x00\x00\x00\x00\x00'
p703
tp704
Rp705
g4
(g8
S'\x05\x00\x00\x00\x00\x00\x00\x00'
p706
tp707
Rp708
tp709
I-8
sg259
I238
sg53
I-264
sg123
I-684
sg451
I2
sg279
I-36
ssg503
g0
(g21
tp710
Rp711
g43
I-18
sg235
I-3
sg175
I9
sg53
I-26
sg123
I-6
sg73
I15
sg493
I-1
sg93
I11
sg113
I24
sg503
I1
sg195
I-6
ss(g4
(g8
S'\x05\x00\x00\x00\x00\x00\x00\x00'
p712
tp713
Rp714
g4
(g8
S'\x02\x00\x00\x00\x00\x00\x00\x00'
p715
tp716
Rp717
g4
(g8
S'\x05\x00\x00\x00\x00\x00\x00\x00'
p718
tp719
Rp720
tp721
g0
(g21
tp722
Rp723
g20
I-549
sg235
I540
sg247
I-24
sg303
I63
sg269
I540
sg533
I63
sg83
I1188
sg503
I-26
sg123
I2568
sg581
I-24
sg133
I-3684
sg33
I-3234
sg591
I26
sg545
I-72
sg601
I-1
sg335
I-108
sg407
I9
sg73
I-3684
sg143
I1188
sg417
I-99
sg103
I2197
sg195
I360
sg175
I-432
sg427
I-26
sg555
I-108
sg709
I26
sg493
I24
sg93
I-1666
sg641
I108
sg113
I-5040
sg345
I-423
sg315
I360
sg43
I7932
sg513
I9
sg259
I-432
s(g4
(g8
S'\x05\x00\x00\x00\x00\x00\x00\x00'
p724
tp725
Rp726
g4
(g8
S'\x03\x00\x00\x00\x00\x00\x00\x00'
p727
tp728
Rp729
g4
(g8
S'\x05\x00\x00\x00\x00\x00\x00\x00'
p730
tp731
Rp732
tp733
I-9
sg53
I2568
s(g4
(g8
S'\x04\x00\x00\x00\x00\x00\x00\x00'
p734
tp735
Rp736
g4
(g8
S'\x02\x00\x00\x00\x00\x00\x00\x00'
p737
tp738
Rp739
g4
(g8
S'\x05\x00\x00\x00\x00\x00\x00\x00'
p740
tp741
Rp742
tp743
I-9
sg63
I348
sg325
I-72
sg651
I-9
s(g4
(g8
S'\x05\x00\x00\x00\x00\x00\x00\x00'
p744
tp745
Rp746
g4
(g8
S'\x05\x00\x00\x00\x00\x00\x00\x00'
p747
tp748
Rp749
g4
(g8
S'\x05\x00\x00\x00\x00\x00\x00\x00'
p750
tp751
Rp752
tp753
I-6
s(g4
(g8
S'\x05\x00\x00\x00\x00\x00\x00\x00'
p754
tp755
Rp756
g4
(g8
S'\x04\x00\x00\x00\x00\x00\x00\x00'
p757
tp758
Rp759
g4
(g8
S'\x05\x00\x00\x00\x00\x00\x00\x00'
p760
tp761
Rp762
tp763
I18
sg721
I1
sg523
I-423
sg279
I24
ssg367
g0
(g21
tp764
Rp765
g153
I-3
sg289
I2
sg367
I1
sg215
I4
sg377
I-3
sg113
I-120
sg33
I-6
sg73
I-36
sg185
I-6
sg103
I18
sg195
I27
sg175
I-18
sg417
I-9
sg165
I9
sg93
I-99
sg133
I-36
sg315
I27
sg43
I90
sg259
I-18
sg53
I90
sg123
I90
sg205
I2
sg225
I-6
ssg601
g0
(g21
tp766
Rp767
g20
I18
sg235
I-54
sg269
I-54
sg83
I-54
sg123
I-444
sg133
I432
sg33
I198
sg345
I45
sg601
I1
sg407
I-6
sg73
I432
sg143
I-54
sg417
I45
sg103
I-279
sg195
I-111
sg175
I90
sg427
I11
sg493
I-6
sg93
I382
sg641
I-9
sg113
I720
sg503
I11
sg315
I-111
sg43
I-876
sg513
I-6
sg259
I90
sg53
I-444
sg63
I-6
sg523
I45
sg279
I-6
ssg611
g0
(g21
tp768
Rp769
g113
I24
sg53
I-50
sg175
I35
sg493
I-10
sg611
I1
ssg407
g0
(g21
tp770
Rp771
g33
I-18
sg43
I126
sg315
I24
sg269
I12
sg175
I-6
sg417
I-6
sg259
I-24
sg53
I54
sg407
I1
sg427
I-3
sg73
I-36
sg279
I2
sg143
I6
sg93
I-63
sg195
I11
sg103
I30
sg113
I-120
sg123
I94
sg345
I-6
sg133
I-78
ssg73
g0
(g21
tp772
Rp773
g43
I-2
sg73
I1
sg53
I-1
sg113
I2
ssg143
g0
(g21
tp774
Rp775
g33
I-3
sg43
I9
sg123
I2
sg143
I1
sg113
I-6
sg133
I-3
ssg417
g0
(g21
tp776
Rp777
g33
I2
sg43
I-22
sg315
I-3
sg175
I2
sg93
I13
sg259
I2
sg53
I-14
sg123
I-14
sg73
I8
sg417
I1
sg133
I8
sg103
I-4
sg113
I24
sg195
I-3
ssg103
g0
(g21
tp778
Rp779
g33
I-1
sg43
I7
sg53
I2
sg123
I2
sg73
I-2
sg93
I-1
sg103
I1
sg113
I-6
sg133
I-2
ssg545
g0
(g21
tp780
Rp781
g33
I24
sg43
I-44
sg53
I-6
sg63
I-4
sg73
I11
sg83
I-6
sg113
I24
sg545
I1
ssg621
g0
(g21
tp782
Rp783
g235
I-180
sg83
I-84
sg581
I16
sg113
I720
sg33
I144
sg591
I-8
sg611
I2
sg73
I668
sg417
I35
sg103
I-208
sg621
I1
sg195
I-177
sg631
I-3
sg175
I238
sg555
I12
sg493
I-36
sg93
I358
sg133
I192
sg503
I38
sg315
I-50
sg43
I-816
sg513
I-10
sg259
I24
sg53
I-684
sg123
I-264
sg523
I72
ssg195
g0
(g21
tp784
Rp785
g43
I4
sg175
I-1
sg53
I5
sg123
I2
sg73
I-2
sg93
I-3
sg113
I-6
sg195
I1
ss(g4
(g8
S'\x05\x00\x00\x00\x00\x00\x00\x00'
p786
tp787
Rp788
g4
(g8
S'\x01\x00\x00\x00\x00\x00\x00\x00'
p789
tp790
Rp791
g4
(g8
S'\x05\x00\x00\x00\x00\x00\x00\x00'
p792
tp793
Rp794
tp795
g0
(g21
tp796
Rp797
g20
I4104
sg235
I-6048
sg247
I384
sg303
I-504
sg269
I-6048
sg795
I1
sg533
I-504
sg83
I-8352
sg503
I916
sg569
I-10
sg123
I-25584
sg581
I384
sg133
I32352
sg33
I20424
sg591
I-416
sg697
I35
sg545
I384
sg601
I116
sg335
I864
sg407
I-494
sg73
I32352
sg143
I-8352
sg417
I2665
sg103
I-22456
sg621
I35
sg195
I-6502
sg631
I-50
sg175
I6024
sg427
I916
sg673
I-50
sg555
I864
sg709
I-416
sg493
I-624
sg93
I20948
s(g4
(g8
S'\x04\x00\x00\x00\x00\x00\x00\x00'
p798
tp799
Rp800
g4
(g8
S'\x01\x00\x00\x00\x00\x00\x00\x00'
p801
tp802
Rp803
g4
(g8
S'\x05\x00\x00\x00\x00\x00\x00\x00'
p804
tp805
Rp806
tp807
I-10
sg641
I-1512
sg113
I40320
sg345
I5256
sg315
I-6502
sg611
I24
sg43
I-58416
sg513
I-494
sg259
I6024
sg733
I72
sg53
I-25584
sg743
I144
sg63
I-1776
sg325
I384
sg651
I144
sg753
I24
sg451
I24
sg763
I-96
sg721
I-16
sg523
I5256
sg279
I-624
ss(g4
(g8
S'\x05\x00\x00\x00\x00\x00\x00\x00'
p808
tp809
Rp810
g4
(g8
S'\x00\x00\x00\x00\x00\x00\x00\x00'
p811
tp812
Rp813
g4
(g8
S'\x04\x00\x00\x00\x00\x00\x00\x00'
p814
tp815
Rp816
tp817
g0
(g21
tp818
Rp819
g153
I385
sg20
I1680
sg533
I-240
sg289
I-144
sg269
I-2880
sg355
I35
sg215
I-144
sg569
I-20
sg461
I60
sg235
I-8640
sg83
I-5760
sg473
I-110
sg503
I2800
sg377
I300
sg63
I-480
sg581
I720
sg113
I40320
sg33
I11520
sg387
I-50
sg591
I-600
sg397
I24
sg345
I3120
sg367
I-210
sg601
I200
sg611
I120
sg407
I-700
sg73
I35160
sg143
I-2880
sg185
I300
sg103
I-20640
sg621
I120
sg195
I-13580
sg817
I1
sg483
I60
sg631
I-220
sg175
I12120
sg417
I5280
sg427
I1000
sg165
I-550
s(g4
(g8
S'\x05\x00\x00\x00\x00\x00\x00\x00'
p820
tp821
Rp822
g4
(g8
S'\x00\x00\x00\x00\x00\x00\x00\x00'
p823
tp824
Rp825
g4
(g8
S'\x02\x00\x00\x00\x00\x00\x00\x00'
p826
tp827
Rp828
tp829
I11
sg555
I720
s(g4
(g8
S'\x05\x00\x00\x00\x00\x00\x00\x00'
p830
tp831
Rp832
g4
(g8
S'\x00\x00\x00\x00\x00\x00\x00\x00'
p833
tp834
Rp835
g4
(g8
S'\x01\x00\x00\x00\x00\x00\x00\x00'
p836
tp837
Rp838
tp839
I-6
sg493
I-1920
sg93
I29960
sg641
I-1080
sg133
I23040
sg545
I120
sg315
I-9120
sg43
I-48480
sg513
I-1320
sg259
I5760
sg53
I-35520
sg123
I-25440
sg651
I120
s(g4
(g8
S'\x04\x00\x00\x00\x00\x00\x00\x00'
p840
tp841
Rp842
g4
(g8
S'\x00\x00\x00\x00\x00\x00\x00\x00'
p843
tp844
Rp845
g4
(g8
S'\x04\x00\x00\x00\x00\x00\x00\x00'
p846
tp847
Rp848
tp849
I-10
sg205
I-210
sg225
I264
sg523
I6120
sg279
I-480
s(g4
(g8
S'\x05\x00\x00\x00\x00\x00\x00\x00'
p850
tp851
Rp852
g4
(g8
S'\x00\x00\x00\x00\x00\x00\x00\x00'
p853
tp854
Rp855
g4
(g8
S'\x03\x00\x00\x00\x00\x00\x00\x00'
p856
tp857
Rp858
tp859
I-6
ssg483
g0
(g21
tp860
Rp861
g483
I1
sg175
I24
sg53
I-44
sg215
I-6
sg493
I-4
sg185
I11
sg205
I-6
sg113
I24
ssg753
g0
(g21
tp862
Rp863
g33
I35
sg43
I-50
sg113
I24
sg753
I1
sg63
I-10
ssg631
g0
(g21
tp864
Rp865
g43
I96
sg235
I36
sg175
I-71
sg581
I-4
sg53
I154
sg611
I-1
sg123
I24
sg73
I-104
sg631
I1
sg493
I14
sg93
I-50
sg113
I-120
sg503
I-10
sg195
I35
ssg175
g0
(g21
tp866
Rp867
g113
I2
sg53
I-3
sg175
I1
ssg185
g0
(g21
tp868
Rp869
g113
I2
sg53
I-2
sg185
I1
sg215
I-1
ssg377
g0
(g21
tp870
Rp871
g289
I-1
sg315
I-6
sg165
I-3
sg377
I1
sg185
I2
sg43
I-12
sg259
I6
sg53
I-12
sg123
I-24
sg93
I18
sg133
I6
sg113
I24
sg215
I-2
sg225
I3
ss(g4
(g8
S'\x05\x00\x00\x00\x00\x00\x00\x00'
p872
tp873
Rp874
g4
(g8
S'\x00\x00\x00\x00\x00\x00\x00\x00'
p875
tp876
Rp877
g4
(g8
S'\x05\x00\x00\x00\x00\x00\x00\x00'
p878
tp879
Rp880
tp881
g0
(g21
tp882
Rp883
g20
I-33000
sg153
I-1750
sg533
I4200
sg247
I-4800
sg289
I840
sg269
I64800
sg303
I4200
sg355
I-350
sg215
I576
sg439
I24
sg461
I-350
sg235
I64800
sg83
I64800
sg839
I24
sg473
I500
sg503
I-17700
sg377
I-1750
sg661
I-50
sg123
I270000
sg581
I-4800
sg133
I-302400
sg33
I-148200
sg387
I500
sg591
I5200
sg397
I-240
sg697
I-875
sg345
I-59400
sg721
I200
sg367
I1225
sg601
I-2700
sg611
I-600
sg407
I10550
sg73
I-302400
sg143
I64800
sg185
I-1200
sg103
I230000
sg621
I-875
sg195
I98950
sg795
I-25
sg817
I-10
sg483
I-240
sg753
I-120
sg631
I1250
sg175
I-78600
sg417
I-48025
sg881
I1
sg427
I-17700
sg569
I250
sg165
I2500
sg829
I-50
sg673
I1250
sg555
I-7200
sg709
I5200
sg493
I10800
sg93
I-260100
sg807
I250
sg641
I18000
sg113
I-362880
sg849
I100
sg545
I-2400
sg315
I98950
sg733
I-600
sg43
I486000
sg513
I10550
sg259
I-78600
s(g4
(g8
S'\x04\x00\x00\x00\x00\x00\x00\x00'
p884
tp885
Rp886
g4
(g8
S'\x00\x00\x00\x00\x00\x00\x00\x00'
p887
tp888
Rp889
g4
(g8
S'\x05\x00\x00\x00\x00\x00\x00\x00'
p890
tp891
Rp892
tp893
I-10
sg53
I270000
sg743
I-1800
sg63
I10800
sg859
I35
sg325
I-2400
sg651
I-1800
sg335
I-7200
sg451
I-600
sg763
I600
sg205
I840
sg225
I-1200
sg523
I-59400
sg279
I10800
s(g4
(g8
S'\x03\x00\x00\x00\x00\x00\x00\x00'
p894
tp895
Rp896
g4
(g8
S'\x00\x00\x00\x00\x00\x00\x00\x00'
p897
tp898
Rp899
g4
(g8
S'\x05\x00\x00\x00\x00\x00\x00\x00'
p900
tp901
Rp902
tp903
I35
ssg427
g0
(g21
tp904
Rp905
g43
I-18
sg315
I-6
sg269
I-3
sg427
I1
sg53
I-6
sg123
I-26
sg259
I9
sg279
I-1
sg93
I11
sg113
I24
sg133
I15
ssg165
g0
(g21
tp906
Rp907
g43
I2
sg53
I4
sg93
I-4
sg165
I1
sg215
I1
sg185
I-1
sg113
I-6
sg123
I4
sg225
I-1
ssg903
g0
(g21
tp908
Rp909
g153
I-50
sg289
I70
sg247
I-120
sg367
I35
sg269
I1260
sg355
I-10
sg215
I48
sg903
I1
sg377
I-105
sg661
I-3
sg113
I-5040
sg33
I-720
sg387
I30
sg397
I-20
sg697
I-15
sg439
I2
sg335
I-60
sg407
I150
sg73
I-1440
sg143
I420
sg185
I-72
sg103
I1560
sg195
I750
sg175
I-360
sg417
I-525
sg427
I-510
sg165
I150
sg673
I45
sg93
I-3810
sg133
I-4380
sg345
I-540
sg315
I2115
sg43
I5040
sg709
I60
sg259
I-2250
sg53
I2520
sg123
I5460
sg451
I-30
sg205
I24
sg225
I-100
sg279
I420
ssg829
g0
(g21
tp910
Rp911
g153
I35
sg235
I-180
sg215
I-24
sg473
I-10
sg581
I20
sg483
I10
sg611
I10
sg73
I520
sg185
I50
sg195
I-350
sg631
I-10
sg175
I530
sg165
I-50
sg829
I1
sg493
I-120
sg93
I500
sg113
I720
sg503
I100
sg43
I-480
sg839
I-1
sg53
I-1020
sg123
I-240
sg205
I-35
sg225
I24
ssg673
g0
(g21
tp912
Rp913
g43
I96
sg315
I35
sg269
I36
sg247
I-4
sg451
I-1
sg259
I-71
sg53
I24
sg123
I154
sg427
I-10
sg279
I14
sg93
I-50
sg113
I-120
sg673
I1
sg133
I-104
ssg555
g0
(g21
tp914
Rp915
g33
I12
sg43
I-36
sg235
I-3
sg175
I2
sg53
I-14
sg73
I21
sg555
I1
sg83
I-7
sg113
I24
ssg839
g0
(g21
tp916
Rp917
g483
I-10
sg839
I1
sg175
I-175
sg53
I250
sg611
I-5
sg215
I24
sg493
I50
sg185
I-50
sg205
I35
sg113
I-120
ssg493
g0
(g21
tp918
Rp919
g113
I-6
sg53
I11
sg175
I-6
sg493
I1
ssg93
g0
(g21
tp920
Rp921
g43
I-1
sg113
I2
sg53
I-1
sg93
I1
sg123
I-1
ssg807
g0
(g21
tp922
Rp923
g20
I-252
sg235
I288
sg247
I-72
sg303
I36
sg269
I972
sg83
I432
sg123
I3828
sg133
I-4404
sg33
I-1872
sg697
I-6
sg503
I-50
sg601
I-10
sg335
I-108
sg407
I72
sg73
I-2736
sg143
I900
sg417
I-318
sg103
I2316
sg195
I612
sg175
I-432
sg427
I-170
sg673
I11
sg743
I-12
sg513
I35
sg493
I24
sg93
I-2614
sg807
I1
sg641
I108
sg113
I-5040
sg345
I-648
sg315
I997
sg43
I6672
sg709
I60
sg259
I-1074
sg53
I2568
sg63
I96
sg325
I-24
sg451
I-6
sg523
I-312
sg279
I132
ssg451
g0
(g21
tp924
Rp925
g259
I35
sg113
I24
sg279
I-10
sg451
I1
sg123
I-50
ssg641
g0
(g21
tp926
Rp927
g20
I-4
sg235
I6
sg269
I6
sg83
I12
sg123
I54
sg133
I-66
sg33
I-48
sg73
I-66
sg143
I12
sg417
I-1
sg103
I37
sg195
I5
sg175
I-6
sg93
I-33
sg641
I1
sg113
I-120
sg345
I-5
sg315
I5
sg43
I166
sg259
I-6
sg53
I54
sg63
I2
sg523
I-5
ssg113
g0
(g21
tp928
Rp929
g113
I1
ssg893
g0
(g21
tp930
Rp931
g20
I1680
sg153
I300
sg235
I-2880
sg247
I720
sg289
I-210
sg269
I-8640
sg303
I-240
sg355
I60
sg215
I-144
sg439
I-6
sg461
I35
sg83
I-2880
sg473
I-50
sg377
I385
sg661
I11
sg123
I-35520
sg133
I35160
sg33
I11520
sg387
I-110
sg397
I60
sg697
I120
sg503
I1000
sg367
I-210
sg601
I200
sg335
I720
sg407
I-1320
sg73
I23040
sg143
I-5760
sg185
I264
sg103
I-20640
sg893
I1
sg195
I-9120
sg483
I24
sg849
I-10
sg175
I5760
sg417
I5280
sg427
I2800
sg165
I-550
sg673
I-220
sg743
I120
sg709
I-600
sg493
I-480
sg93
I29960
sg807
I-20
sg641
I-1080
sg113
I40320
sg345
I6120
sg315
I-13580
sg43
I-48480
sg513
I-700
sg259
I12120
sg53
I-25440
sg63
I-480
sg325
I120
sg451
I120
sg205
I-144
sg225
I300
sg523
I3120
sg279
I-1920
sg903
I-6
ssg345
g0
(g21
tp932
Rp933
g33
I6
sg43
I-30
sg315
I-1
sg269
I-2
sg259
I2
sg53
I-6
sg123
I-14
sg73
I6
sg143
I-2
sg93
I5
sg103
I-5
sg113
I24
sg345
I1
sg133
I16
ssg315
g0
(g21
tp934
Rp935
g43
I4
sg259
I-1
sg53
I2
sg123
I5
sg93
I-3
sg133
I-2
sg113
I-6
sg315
I1
ssg43
g0
(g21
tp936
Rp937
g43
I1
sg113
I-1
ssg513
g0
(g21
tp938
Rp939
g33
I-18
sg43
I126
sg315
I11
sg513
I1
sg175
I-24
sg417
I-6
sg259
I-6
sg523
I-6
sg53
I94
sg123
I54
sg73
I-78
sg235
I12
sg493
I2
sg93
I-63
sg133
I-36
sg103
I30
sg113
I-120
sg503
I-3
sg195
I24
sg83
I6
ssg259
g0
(g21
tp940
Rp941
g259
I1
sg113
I2
sg123
I-3
ssg733
g0
(g21
tp942
Rp943
g20
I73
sg235
I-36
sg303
I-7
sg269
I-36
sg533
I-7
sg83
I-180
sg123
I-264
sg133
I428
sg33
I598
sg545
I16
sg335
I12
sg73
I428
sg143
I-180
sg417
I2
sg103
I-191
sg195
I-14
sg175
I24
sg555
I12
sg93
I122
sg641
I-3
sg113
I720
sg345
I21
sg315
I-14
sg43
I-1236
sg763
I-4
sg325
I16
sg523
I21
sg53
I-264
sg63
I-84
sg259
I24
sg753
I2
sg733
I1
ssg53
g0
(g21
tp944
Rp945
g113
I-1
sg53
I1
ssg743
g0
(g21
tp946
Rp947
g20
I42
sg235
I-24
sg247
I6
sg303
I-6
sg269
I-108
sg83
I-72
sg123
I-444
sg133
I600
sg33
I360
sg335
I18
sg407
I-1
sg73
I336
sg143
I-162
sg417
I9
sg103
I-256
sg195
I-26
sg175
I24
sg427
I5
sg743
I1
sg93
I214
sg641
I-9
sg113
I720
sg345
I63
sg315
I-57
sg43
I-1056
sg709
I-5
sg259
I90
sg53
I-264
sg63
I-24
sg325
I6
sg523
I26
sg279
I-6
ssg123
g0
(g21
tp948
Rp949
g113
I-1
sg123
I1
ssg325
g0
(g21
tp950
Rp951
g33
I24
sg43
I-44
sg325
I1
sg123
I-6
sg143
I-6
sg113
I24
sg63
I-4
sg133
I11
ssg651
g0
(g21
tp952
Rp953
g20
I42
sg235
I-108
sg269
I-24
sg533
I-6
sg83
I-162
sg123
I-264
sg581
I6
sg133
I336
sg33
I360
sg591
I-5
sg503
I5
sg73
I600
sg143
I-72
sg417
I9
sg103
I-256
sg195
I-57
sg175
I90
sg555
I18
sg493
I-6
sg93
I214
sg641
I-9
sg113
I720
sg545
I6
sg315
I-26
sg345
I26
sg43
I-1056
sg513
I-1
sg259
I24
sg53
I-444
sg63
I-24
sg651
I1
sg523
I63
ssg335
g0
(g21
tp954
Rp955
g33
I12
sg43
I-36
sg259
I2
sg269
I-3
sg335
I1
sg123
I-14
sg143
I-7
sg113
I24
sg133
I21
ssg849
g0
(g21
tp956
Rp957
g20
I-96
sg289
I36
sg235
I432
sg367
I36
sg269
I432
sg355
I-6
sg215
I36
sg461
I-6
sg83
I288
sg473
I11
sg377
I-66
sg123
I3792
sg133
I-3024
sg33
I-1008
sg387
I11
sg397
I-6
sg503
I-176
sg601
I-16
sg407
I96
sg73
I-3024
sg143
I288
sg185
I-66
sg103
I2088
sg195
I1416
sg483
I-6
sg849
I1
sg175
I-1008
sg417
I-648
sg427
I-176
sg165
I121
sg493
I96
sg93
I-3928
sg641
I72
sg113
I-5040
sg345
I-360
sg315
I1416
sg43
I5448
sg513
I96
sg259
I-1008
sg53
I3792
sg63
I24
sg205
I36
sg225
I-66
sg523
I-360
sg279
I96
sg153
I-66
ssg763
g0
(g21
tp958
Rp959
g20
I-6
sg33
I-131
sg763
I1
sg43
I226
sg325
I-4
sg53
I24
sg753
I-1
sg63
I26
sg73
I-44
sg83
I24
sg93
I-6
sg103
I11
sg113
I-120
sg123
I24
sg545
I-4
sg133
I-44
sg143
I24
ssg205
g0
(g21
tp960
Rp961
g175
I-3
sg53
I9
sg215
I2
sg185
I-3
sg205
I1
sg113
I-6
ssg225
g0
(g21
tp962
Rp963
g225
I1
sg215
I-1
sg113
I2
sg123
I-2
ssg709
g0
(g21
tp964
Rp965
g33
I-36
sg43
I156
sg315
I9
sg709
I1
sg247
I-2
sg259
I-24
sg53
I24
sg335
I-3
sg123
I94
sg427
I-1
sg73
I-24
sg279
I2
sg269
I27
sg143
I21
sg93
I-26
sg103
I26
sg113
I-120
sg345
I-9
sg133
I-115
ssg523
g0
(g21
tp966
Rp967
g33
I6
sg43
I-30
sg235
I-2
sg175
I2
sg53
I-14
sg123
I-6
sg73
I16
sg195
I-1
sg83
I-2
sg93
I5
sg103
I-5
sg113
I24
sg523
I1
sg133
I6
ssg279
g0
(g21
tp968
Rp969
g259
I-6
sg113
I-6
sg279
I1
sg123
I11
ssg859
g0
(g21
tp970
Rp971
g153
I-105
sg289
I24
sg235
I1260
sg367
I35
sg215
I48
sg461
I-10
sg83
I420
sg473
I30
sg377
I-50
sg581
I-120
sg133
I-1440
sg33
I-720
sg591
I60
sg611
I-30
sg73
I-4380
sg185
I-100
sg103
I1560
sg621
I-15
sg195
I2115
sg483
I-20
sg631
I45
sg175
I-2250
sg417
I-525
sg165
I150
sg829
I-3
sg555
I-60
sg839
I2
sg859
I1
sg93
I-3810
sg113
I-5040
sg503
I-510
sg315
I750
sg43
I5040
sg513
I150
sg259
I-360
sg53
I5460
sg123
I2520
sg205
I70
sg225
I-72
sg523
I-540
sg493
I420
ss.