ccollections
defaultdict
p0
(c__main__
dd
p1
tp2
Rp3
(cnumpy.core.multiarray
scalar
p4
(cnumpy
dtype
p5
(S'i8'
p6
I0
I1
tp7
Rp8
(I3
S'<'
p9
NNNI-1
I-1
I0
tp10
bS'\x03\x00\x00\x00\x00\x00\x00\x00'
p11
tp12
Rp13
g4
(g8
S'\x00\x00\x00\x00\x00\x00\x00\x00'
p14
tp15
Rp16
g4
(g8
S'\x02\x00\x00\x00\x00\x00\x00\x00'
p17
tp18
Rp19
tp20
g0
(c__builtin__
int
p21
tp22
Rp23
g20
I1
s(g4
(g8
S'\x02\x00\x00\x00\x00\x00\x00\x00'
p24
tp25
Rp26
g4
(g8
S'\x02\x00\x00\x00\x00\x00\x00\x00'
p27
tp28
Rp29
g4
(g8
S'\x02\x00\x00\x00\x00\x00\x00\x00'
p30
tp31
Rp32
tp33
I-12
s(g4
(g8
S'\x02\x00\x00\x00\x00\x00\x00\x00'
p34
tp35
Rp36
g4
(g8
S'\x00\x00\x00\x00\x00\x00\x00\x00'
p37
tp38
Rp39
g4
(g8
S'\x02\x00\x00\x00\x00\x00\x00\x00'
p40
tp41
Rp42
tp43
I-3
s(g4
(g8
S'\x03\x00\x00\x00\x00\x00\x00\x00'
p44
tp45
Rp46
g4
(g8
S'\x01\x00\x00\x00\x00\x00\x00\x00'
p47
tp48
Rp49
g4
(g8
S'\x01\x00\x00\x00\x00\x00\x00\x00'
p50
tp51
Rp52
tp53
I6
s(g4
(g8
S'\x02\x00\x00\x00\x00\x00\x00\x00'
p54
tp55
Rp56
g4
(g8
S'\x00\x00\x00\x00\x00\x00\x00\x00'
p57
tp58
Rp59
g4
(g8
S'\x01\x00\x00\x00\x00\x00\x00\x00'
p60
tp61
Rp62
tp63
I3
s(g4
(g8
S'\x02\x00\x00\x00\x00\x00\x00\x00'
p64
tp65
Rp66
g4
(g8
S'\x01\x00\x00\x00\x00\x00\x00\x00'
p67
tp68
Rp69
g4
(g8
S'\x01\x00\x00\x00\x00\x00\x00\x00'
p70
tp71
Rp72
tp73
I-24
s(g4
(g8
S'\x01\x00\x00\x00\x00\x00\x00\x00'
p74
tp75
Rp76
g4
(g8
S'\x01\x00\x00\x00\x00\x00\x00\x00'
p77
tp78
Rp79
g4
(g8
S'\x02\x00\x00\x00\x00\x00\x00\x00'
p80
tp81
Rp82
tp83
I-12
s(g4
(g8
S'\x03\x00\x00\x00\x00\x00\x00\x00'
p84
tp85
Rp86
g4
(g8
S'\x02\x00\x00\x00\x00\x00\x00\x00'
p87
tp88
Rp89
g4
(g8
S'\x02\x00\x00\x00\x00\x00\x00\x00'
p90
tp91
Rp92
tp93
I6
s(g4
(g8
S'\x03\x00\x00\x00\x00\x00\x00\x00'
p94
tp95
Rp96
g4
(g8
S'\x01\x00\x00\x00\x00\x00\x00\x00'
p97
tp98
Rp99
g4
(g8
S'\x02\x00\x00\x00\x00\x00\x00\x00'
p100
tp101
Rp102
tp103
I-6
s(g4
(g8
S'\x02\x00\x00\x00\x00\x00\x00\x00'
p104
tp105
Rp106
g4
(g8
S'\x01\x00\x00\x00\x00\x00\x00\x00'
p107
tp108
Rp109
g4
(g8
S'\x02\x00\x00\x00\x00\x00\x00\x00'
p110
tp111
Rp112
tp113
I18
s(g4
(g8
S'\x03\x00\x00\x00\x00\x00\x00\x00'
p114
tp115
Rp116
g4
(g8
S'\x00\x00\x00\x00\x00\x00\x00\x00'
p117
tp118
Rp119
g4
(g8
S'\x01\x00\x00\x00\x00\x00\x00\x00'
p120
tp121
Rp122
tp123
I-1
s(g4
(g8
S'\x01\x00\x00\x00\x00\x00\x00\x00'
p124
tp125
Rp126
g4
(g8
S'\x01\x00\x00\x00\x00\x00\x00\x00'
p127
tp128
Rp129
g4
(g8
S'\x01\x00\x00\x00\x00\x00\x00\x00'
p130
tp131
Rp132
tp133
I24
s(g4
(g8
S'\x01\x00\x00\x00\x00\x00\x00\x00'
p134
tp135
Rp136
g4
(g8
S'\x00\x00\x00\x00\x00\x00\x00\x00'
p137
tp138
Rp139
g4
(g8
S'\x01\x00\x00\x00\x00\x00\x00\x00'
p140
tp141
Rp142
tp143
I-2
s(g4
(g8
S'\x01\x00\x00\x00\x00\x00\x00\x00'
p144
tp145
Rp146
g4
(g8
S'\x00\x00\x00\x00\x00\x00\x00\x00'
p147
tp148
Rp149
g4
(g8
S'\x02\x00\x00\x00\x00\x00\x00\x00'
p150
tp151
Rp152
tp153
I2
ss(g4
(g8
S'\x04\x00\x00\x00\x00\x00\x00\x00'
p154
tp155
Rp156
g4
(g8
S'\x02\x00\x00\x00\x00\x00\x00\x00'
p157
tp158
Rp159
g4
(g8
S'\x02\x00\x00\x00\x00\x00\x00\x00'
p160
tp161
Rp162
tp163
g0
(g21
tp164
Rp165
g33
I6
sg163
I1
sg53
I-1
sg73
I5
sg93
I-5
sg133
I-6
ss(g4
(g8
S'\x03\x00\x00\x00\x00\x00\x00\x00'
p166
tp167
Rp168
g4
(g8
S'\x00\x00\x00\x00\x00\x00\x00\x00'
p169
tp170
Rp171
g4
(g8
S'\x03\x00\x00\x00\x00\x00\x00\x00'
p172
tp173
Rp174
tp175
g0
(g21
tp176
Rp177
g20
I-3
s(g4
(g8
S'\x01\x00\x00\x00\x00\x00\x00\x00'
p178
tp179
Rp180
g4
(g8
S'\x00\x00\x00\x00\x00\x00\x00\x00'
p181
tp182
Rp183
g4
(g8
S'\x03\x00\x00\x00\x00\x00\x00\x00'
p184
tp185
Rp186
tp187
I2
sg175
I1
sg143
I4
s(g4
(g8
S'\x02\x00\x00\x00\x00\x00\x00\x00'
p188
tp189
Rp190
g4
(g8
S'\x00\x00\x00\x00\x00\x00\x00\x00'
p191
tp192
Rp193
g4
(g8
S'\x03\x00\x00\x00\x00\x00\x00\x00'
p194
tp195
Rp196
tp197
I-3
sg133
I-120
s(g4
(g8
S'\x03\x00\x00\x00\x00\x00\x00\x00'
p198
tp199
Rp200
g4
(g8
S'\x03\x00\x00\x00\x00\x00\x00\x00'
p201
tp202
Rp203
g4
(g8
S'\x03\x00\x00\x00\x00\x00\x00\x00'
p204
tp205
Rp206
tp207
I-6
sg93
I-36
sg63
I-6
s(g4
(g8
S'\x03\x00\x00\x00\x00\x00\x00\x00'
p208
tp209
Rp210
g4
(g8
S'\x02\x00\x00\x00\x00\x00\x00\x00'
p211
tp212
Rp213
g4
(g8
S'\x03\x00\x00\x00\x00\x00\x00\x00'
p214
tp215
Rp216
tp217
I18
sg103
I27
sg53
I-18
s(g4
(g8
S'\x03\x00\x00\x00\x00\x00\x00\x00'
p218
tp219
Rp220
g4
(g8
S'\x01\x00\x00\x00\x00\x00\x00\x00'
p221
tp222
Rp223
g4
(g8
S'\x03\x00\x00\x00\x00\x00\x00\x00'
p224
tp225
Rp226
tp227
I-9
sg43
I9
sg113
I-99
s(g4
(g8
S'\x02\x00\x00\x00\x00\x00\x00\x00'
p228
tp229
Rp230
g4
(g8
S'\x02\x00\x00\x00\x00\x00\x00\x00'
p231
tp232
Rp233
g4
(g8
S'\x03\x00\x00\x00\x00\x00\x00\x00'
p234
tp235
Rp236
tp237
I-36
s(g4
(g8
S'\x02\x00\x00\x00\x00\x00\x00\x00'
p238
tp239
Rp240
g4
(g8
S'\x01\x00\x00\x00\x00\x00\x00\x00'
p241
tp242
Rp243
g4
(g8
S'\x03\x00\x00\x00\x00\x00\x00\x00'
p244
tp245
Rp246
tp247
I27
sg33
I90
s(g4
(g8
S'\x01\x00\x00\x00\x00\x00\x00\x00'
p248
tp249
Rp250
g4
(g8
S'\x01\x00\x00\x00\x00\x00\x00\x00'
p251
tp252
Rp253
g4
(g8
S'\x03\x00\x00\x00\x00\x00\x00\x00'
p254
tp255
Rp256
tp257
I-18
sg73
I90
sg83
I90
sg123
I2
sg153
I-6
ss(g4
(g8
S'\x02\x00\x00\x00\x00\x00\x00\x00'
p258
tp259
Rp260
g4
(g8
S'\x02\x00\x00\x00\x00\x00\x00\x00'
p261
tp262
Rp263
g4
(g8
S'\x04\x00\x00\x00\x00\x00\x00\x00'
p264
tp265
Rp266
tp267
g0
(g21
tp268
Rp269
g33
I6
sg257
I-1
sg267
I1
sg83
I5
sg133
I-6
sg237
I-5
ss(g4
(g8
S'\x05\x00\x00\x00\x00\x00\x00\x00'
p270
tp271
Rp272
g4
(g8
S'\x01\x00\x00\x00\x00\x00\x00\x00'
p273
tp274
Rp275
g4
(g8
S'\x01\x00\x00\x00\x00\x00\x00\x00'
p276
tp277
Rp278
tp279
g0
(g21
tp280
Rp281
g133
I24
sg73
I-50
sg53
I35
s(g4
(g8
S'\x04\x00\x00\x00\x00\x00\x00\x00'
p282
tp283
Rp284
g4
(g8
S'\x01\x00\x00\x00\x00\x00\x00\x00'
p285
tp286
Rp287
g4
(g8
S'\x01\x00\x00\x00\x00\x00\x00\x00'
p288
tp289
Rp290
tp291
I-10
sg279
I1
ss(g4
(g8
S'\x02\x00\x00\x00\x00\x00\x00\x00'
p292
tp293
Rp294
g4
(g8
S'\x00\x00\x00\x00\x00\x00\x00\x00'
p295
tp296
Rp297
g4
(g8
S'\x05\x00\x00\x00\x00\x00\x00\x00'
p298
tp299
Rp300
tp301
g0
(g21
tp302
Rp303
g187
I-35
s(g4
(g8
S'\x02\x00\x00\x00\x00\x00\x00\x00'
p304
tp305
Rp306
g4
(g8
S'\x02\x00\x00\x00\x00\x00\x00\x00'
p307
tp308
Rp309
g4
(g8
S'\x05\x00\x00\x00\x00\x00\x00\x00'
p310
tp311
Rp312
tp313
I20
sg267
I-180
sg143
I-24
sg301
I1
sg133
I720
s(g4
(g8
S'\x02\x00\x00\x00\x00\x00\x00\x00'
p314
tp315
Rp316
g4
(g8
S'\x00\x00\x00\x00\x00\x00\x00\x00'
p317
tp318
Rp319
g4
(g8
S'\x04\x00\x00\x00\x00\x00\x00\x00'
p320
tp321
Rp322
tp323
I-10
s(g4
(g8
S'\x01\x00\x00\x00\x00\x00\x00\x00'
p324
tp325
Rp326
g4
(g8
S'\x00\x00\x00\x00\x00\x00\x00\x00'
p327
tp328
Rp329
g4
(g8
S'\x04\x00\x00\x00\x00\x00\x00\x00'
p330
tp331
Rp332
tp333
I10
s(g4
(g8
S'\x01\x00\x00\x00\x00\x00\x00\x00'
p334
tp335
Rp336
g4
(g8
S'\x00\x00\x00\x00\x00\x00\x00\x00'
p337
tp338
Rp339
g4
(g8
S'\x05\x00\x00\x00\x00\x00\x00\x00'
p340
tp341
Rp342
tp343
I-1
sg63
I24
sg197
I35
s(g4
(g8
S'\x02\x00\x00\x00\x00\x00\x00\x00'
p344
tp345
Rp346
g4
(g8
S'\x01\x00\x00\x00\x00\x00\x00\x00'
p347
tp348
Rp349
g4
(g8
S'\x04\x00\x00\x00\x00\x00\x00\x00'
p350
tp351
Rp352
tp353
I100
sg43
I-50
s(g4
(g8
S'\x02\x00\x00\x00\x00\x00\x00\x00'
p354
tp355
Rp356
g4
(g8
S'\x01\x00\x00\x00\x00\x00\x00\x00'
p357
tp358
Rp359
g4
(g8
S'\x05\x00\x00\x00\x00\x00\x00\x00'
p360
tp361
Rp362
tp363
I-10
sg113
I500
sg237
I520
sg247
I-350
sg33
I-480
sg257
I530
sg73
I-240
sg83
I-1020
s(g4
(g8
S'\x01\x00\x00\x00\x00\x00\x00\x00'
p364
tp365
Rp366
g4
(g8
S'\x01\x00\x00\x00\x00\x00\x00\x00'
p367
tp368
Rp369
g4
(g8
S'\x05\x00\x00\x00\x00\x00\x00\x00'
p370
tp371
Rp372
tp373
I10
sg153
I50
s(g4
(g8
S'\x01\x00\x00\x00\x00\x00\x00\x00'
p374
tp375
Rp376
g4
(g8
S'\x01\x00\x00\x00\x00\x00\x00\x00'
p377
tp378
Rp379
g4
(g8
S'\x04\x00\x00\x00\x00\x00\x00\x00'
p380
tp381
Rp382
tp383
I-120
ss(g4
(g8
S'\x06\x00\x00\x00\x00\x00\x00\x00'
p384
tp385
Rp386
g4
(g8
S'\x00\x00\x00\x00\x00\x00\x00\x00'
p387
tp388
Rp389
g4
(g8
S'\x02\x00\x00\x00\x00\x00\x00\x00'
p390
tp391
Rp392
tp393
g0
(g21
tp394
Rp395
g20
I-225
sg163
I2130
s(g4
(g8
S'\x06\x00\x00\x00\x00\x00\x00\x00'
p396
tp397
Rp398
g4
(g8
S'\x00\x00\x00\x00\x00\x00\x00\x00'
p399
tp400
Rp401
g4
(g8
S'\x01\x00\x00\x00\x00\x00\x00\x00'
p402
tp403
Rp404
tp405
I-1
sg143
I120
s(g4
(g8
S'\x04\x00\x00\x00\x00\x00\x00\x00'
p406
tp407
Rp408
g4
(g8
S'\x00\x00\x00\x00\x00\x00\x00\x00'
p409
tp410
Rp411
g4
(g8
S'\x02\x00\x00\x00\x00\x00\x00\x00'
p412
tp413
Rp414
tp415
I85
s(g4
(g8
S'\x05\x00\x00\x00\x00\x00\x00\x00'
p416
tp417
Rp418
g4
(g8
S'\x02\x00\x00\x00\x00\x00\x00\x00'
p419
tp420
Rp421
g4
(g8
S'\x02\x00\x00\x00\x00\x00\x00\x00'
p422
tp423
Rp424
tp425
I-420
sg393
I1
s(g4
(g8
S'\x04\x00\x00\x00\x00\x00\x00\x00'
p426
tp427
Rp428
g4
(g8
S'\x00\x00\x00\x00\x00\x00\x00\x00'
p429
tp430
Rp431
g4
(g8
S'\x01\x00\x00\x00\x00\x00\x00\x00'
p432
tp433
Rp434
tp435
I-85
s(g4
(g8
S'\x06\x00\x00\x00\x00\x00\x00\x00'
p436
tp437
Rp438
g4
(g8
S'\x01\x00\x00\x00\x00\x00\x00\x00'
p439
tp440
Rp441
g4
(g8
S'\x02\x00\x00\x00\x00\x00\x00\x00'
p442
tp443
Rp444
tp445
I-12
sg279
I-210
sg93
I-4620
s(g4
(g8
S'\x06\x00\x00\x00\x00\x00\x00\x00'
p446
tp447
Rp448
g4
(g8
S'\x02\x00\x00\x00\x00\x00\x00\x00'
p449
tp450
Rp451
g4
(g8
S'\x02\x00\x00\x00\x00\x00\x00\x00'
p452
tp453
Rp454
tp455
I30
sg63
I-274
sg103
I2700
s(g4
(g8
S'\x06\x00\x00\x00\x00\x00\x00\x00'
p456
tp457
Rp458
g4
(g8
S'\x01\x00\x00\x00\x00\x00\x00\x00'
p459
tp460
Rp461
g4
(g8
S'\x01\x00\x00\x00\x00\x00\x00\x00'
p462
tp463
Rp464
tp465
I12
s(g4
(g8
S'\x05\x00\x00\x00\x00\x00\x00\x00'
p466
tp467
Rp468
g4
(g8
S'\x01\x00\x00\x00\x00\x00\x00\x00'
p469
tp470
Rp471
g4
(g8
S'\x02\x00\x00\x00\x00\x00\x00\x00'
p472
tp473
Rp474
tp475
I180
sg53
I-4830
sg43
I274
s(g4
(g8
S'\x05\x00\x00\x00\x00\x00\x00\x00'
p476
tp477
Rp478
g4
(g8
S'\x00\x00\x00\x00\x00\x00\x00\x00'
p479
tp480
Rp481
g4
(g8
S'\x02\x00\x00\x00\x00\x00\x00\x00'
p482
tp483
Rp484
tp485
I-15
sg291
I1440
sg113
I-3288
sg133
I-5040
s(g4
(g8
S'\x04\x00\x00\x00\x00\x00\x00\x00'
p486
tp487
Rp488
g4
(g8
S'\x01\x00\x00\x00\x00\x00\x00\x00'
p489
tp490
Rp491
g4
(g8
S'\x02\x00\x00\x00\x00\x00\x00\x00'
p492
tp493
Rp494
tp495
I-1020
sg33
I3600
s(g4
(g8
S'\x05\x00\x00\x00\x00\x00\x00\x00'
p496
tp497
Rp498
g4
(g8
S'\x00\x00\x00\x00\x00\x00\x00\x00'
p499
tp500
Rp501
g4
(g8
S'\x01\x00\x00\x00\x00\x00\x00\x00'
p502
tp503
Rp504
tp505
I15
sg73
I7908
sg83
I1440
sg123
I225
sg153
I-120
ss(g4
(g8
S'\x03\x00\x00\x00\x00\x00\x00\x00'
p506
tp507
Rp508
g4
(g8
S'\x01\x00\x00\x00\x00\x00\x00\x00'
p509
tp510
Rp511
g4
(g8
S'\x06\x00\x00\x00\x00\x00\x00\x00'
p512
tp513
Rp514
tp515
g0
(g21
tp516
Rp517
g313
I-340
s(g4
(g8
S'\x01\x00\x00\x00\x00\x00\x00\x00'
p518
tp519
Rp520
g4
(g8
S'\x01\x00\x00\x00\x00\x00\x00\x00'
p521
tp522
Rp523
g4
(g8
S'\x06\x00\x00\x00\x00\x00\x00\x00'
p524
tp525
Rp526
tp527
I2
sg267
I2140
sg133
I-5040
sg207
I-1200
sg515
I1
s(g4
(g8
S'\x03\x00\x00\x00\x00\x00\x00\x00'
p528
tp529
Rp530
g4
(g8
S'\x01\x00\x00\x00\x00\x00\x00\x00'
p531
tp532
Rp533
g4
(g8
S'\x05\x00\x00\x00\x00\x00\x00\x00'
p534
tp535
Rp536
tp537
I-15
s(g4
(g8
S'\x03\x00\x00\x00\x00\x00\x00\x00'
p538
tp539
Rp540
g4
(g8
S'\x03\x00\x00\x00\x00\x00\x00\x00'
p541
tp542
Rp543
g4
(g8
S'\x05\x00\x00\x00\x00\x00\x00\x00'
p544
tp545
Rp546
tp547
I-240
s(g4
(g8
S'\x03\x00\x00\x00\x00\x00\x00\x00'
p548
tp549
Rp550
g4
(g8
S'\x01\x00\x00\x00\x00\x00\x00\x00'
p551
tp552
Rp553
g4
(g8
S'\x04\x00\x00\x00\x00\x00\x00\x00'
p554
tp555
Rp556
tp557
I85
sg93
I-1200
s(g4
(g8
S'\x03\x00\x00\x00\x00\x00\x00\x00'
p558
tp559
Rp560
g4
(g8
S'\x03\x00\x00\x00\x00\x00\x00\x00'
p561
tp562
Rp563
g4
(g8
S'\x04\x00\x00\x00\x00\x00\x00\x00'
p564
tp565
Rp566
tp567
I940
sg227
I-225
sg217
I1540
s(g4
(g8
S'\x02\x00\x00\x00\x00\x00\x00\x00'
p568
tp569
Rp570
g4
(g8
S'\x01\x00\x00\x00\x00\x00\x00\x00'
p571
tp572
Rp573
g4
(g8
S'\x06\x00\x00\x00\x00\x00\x00\x00'
p574
tp575
Rp576
tp577
I-3
sg103
I274
s(g4
(g8
S'\x03\x00\x00\x00\x00\x00\x00\x00'
p578
tp579
Rp580
g4
(g8
S'\x03\x00\x00\x00\x00\x00\x00\x00'
p581
tp582
Rp583
g4
(g8
S'\x06\x00\x00\x00\x00\x00\x00\x00'
p584
tp585
Rp586
tp587
I20
sg53
I-120
sg353
I-395
s(g4
(g8
S'\x03\x00\x00\x00\x00\x00\x00\x00'
p588
tp589
Rp590
g4
(g8
S'\x02\x00\x00\x00\x00\x00\x00\x00'
p591
tp592
Rp593
g4
(g8
S'\x06\x00\x00\x00\x00\x00\x00\x00'
p594
tp595
Rp596
tp597
I-10
sg363
I55
sg113
I-2362
sg237
I-5900
s(g4
(g8
S'\x03\x00\x00\x00\x00\x00\x00\x00'
p598
tp599
Rp600
g4
(g8
S'\x02\x00\x00\x00\x00\x00\x00\x00'
p601
tp602
Rp603
g4
(g8
S'\x04\x00\x00\x00\x00\x00\x00\x00'
p604
tp605
Rp606
tp607
I-710
sg247
I1385
sg33
I6000
s(g4
(g8
S'\x03\x00\x00\x00\x00\x00\x00\x00'
p608
tp609
Rp610
g4
(g8
S'\x02\x00\x00\x00\x00\x00\x00\x00'
p611
tp612
Rp613
g4
(g8
S'\x05\x00\x00\x00\x00\x00\x00\x00'
p614
tp615
Rp616
tp617
I140
sg257
I-2350
sg73
I1560
s(g4
(g8
S'\x02\x00\x00\x00\x00\x00\x00\x00'
p618
tp619
Rp620
g4
(g8
S'\x02\x00\x00\x00\x00\x00\x00\x00'
p621
tp622
Rp623
g4
(g8
S'\x06\x00\x00\x00\x00\x00\x00\x00'
p624
tp625
Rp626
tp627
I20
sg83
I5508
sg373
I-50
sg383
I490
ss(g4
(g8
S'\x05\x00\x00\x00\x00\x00\x00\x00'
p628
tp629
Rp630
g4
(g8
S'\x02\x00\x00\x00\x00\x00\x00\x00'
p631
tp632
Rp633
g4
(g8
S'\x03\x00\x00\x00\x00\x00\x00\x00'
p634
tp635
Rp636
tp637
g0
(g21
tp638
Rp639
g207
I-36
sg33
I156
sg637
I1
sg53
I-24
sg113
I-26
sg495
I-1
sg73
I94
s(g4
(g8
S'\x05\x00\x00\x00\x00\x00\x00\x00'
p640
tp641
Rp642
g4
(g8
S'\x03\x00\x00\x00\x00\x00\x00\x00'
p643
tp644
Rp645
g4
(g8
S'\x03\x00\x00\x00\x00\x00\x00\x00'
p646
tp647
Rp648
tp649
I-3
sg83
I24
sg93
I-115
sg163
I27
s(g4
(g8
S'\x04\x00\x00\x00\x00\x00\x00\x00'
p650
tp651
Rp652
g4
(g8
S'\x03\x00\x00\x00\x00\x00\x00\x00'
p653
tp654
Rp655
g4
(g8
S'\x03\x00\x00\x00\x00\x00\x00\x00'
p656
tp657
Rp658
tp659
I21
sg103
I9
sg425
I-2
sg217
I26
sg133
I-120
s(g4
(g8
S'\x04\x00\x00\x00\x00\x00\x00\x00'
p660
tp661
Rp662
g4
(g8
S'\x02\x00\x00\x00\x00\x00\x00\x00'
p663
tp664
Rp665
g4
(g8
S'\x03\x00\x00\x00\x00\x00\x00\x00'
p666
tp667
Rp668
tp669
I-9
sg237
I-24
sg291
I2
ss(g4
(g8
S'\x06\x00\x00\x00\x00\x00\x00\x00'
p670
tp671
Rp672
g4
(g8
S'\x00\x00\x00\x00\x00\x00\x00\x00'
p673
tp674
Rp675
g4
(g8
S'\x04\x00\x00\x00\x00\x00\x00\x00'
p676
tp677
Rp678
tp679
g0
(g21
tp680
Rp681
g20
I-2475
s(g4
(g8
S'\x04\x00\x00\x00\x00\x00\x00\x00'
p682
tp683
Rp684
g4
(g8
S'\x03\x00\x00\x00\x00\x00\x00\x00'
p685
tp686
Rp687
g4
(g8
S'\x04\x00\x00\x00\x00\x00\x00\x00'
p688
tp689
Rp690
tp691
I-22560
s(g4
(g8
S'\x05\x00\x00\x00\x00\x00\x00\x00'
p692
tp693
Rp694
g4
(g8
S'\x03\x00\x00\x00\x00\x00\x00\x00'
p695
tp696
Rp697
g4
(g8
S'\x04\x00\x00\x00\x00\x00\x00\x00'
p698
tp699
Rp700
tp701
I5760
s(g4
(g8
S'\x06\x00\x00\x00\x00\x00\x00\x00'
p702
tp703
Rp704
g4
(g8
S'\x02\x00\x00\x00\x00\x00\x00\x00'
p705
tp706
Rp707
g4
(g8
S'\x03\x00\x00\x00\x00\x00\x00\x00'
p708
tp709
Rp710
tp711
I-900
s(g4
(g8
S'\x06\x00\x00\x00\x00\x00\x00\x00'
p712
tp713
Rp714
g4
(g8
S'\x03\x00\x00\x00\x00\x00\x00\x00'
p715
tp716
Rp717
g4
(g8
S'\x04\x00\x00\x00\x00\x00\x00\x00'
p718
tp719
Rp720
tp721
I-480
sg187
I720
sg405
I-6
sg267
I21600
s(g4
(g8
S'\x03\x00\x00\x00\x00\x00\x00\x00'
p722
tp723
Rp724
g4
(g8
S'\x00\x00\x00\x00\x00\x00\x00\x00'
p725
tp726
Rp727
g4
(g8
S'\x04\x00\x00\x00\x00\x00\x00\x00'
p728
tp729
Rp730
tp731
I-225
sg143
I720
s(g4
(g8
S'\x05\x00\x00\x00\x00\x00\x00\x00'
p732
tp733
Rp734
g4
(g8
S'\x01\x00\x00\x00\x00\x00\x00\x00'
p735
tp736
Rp737
g4
(g8
S'\x04\x00\x00\x00\x00\x00\x00\x00'
p738
tp739
Rp740
tp741
I360
s(g4
(g8
S'\x06\x00\x00\x00\x00\x00\x00\x00'
p742
tp743
Rp744
g4
(g8
S'\x04\x00\x00\x00\x00\x00\x00\x00'
p745
tp746
Rp747
g4
(g8
S'\x04\x00\x00\x00\x00\x00\x00\x00'
p748
tp749
Rp750
tp751
I360
s(g4
(g8
S'\x04\x00\x00\x00\x00\x00\x00\x00'
p752
tp753
Rp754
g4
(g8
S'\x00\x00\x00\x00\x00\x00\x00\x00'
p755
tp756
Rp757
g4
(g8
S'\x03\x00\x00\x00\x00\x00\x00\x00'
p758
tp759
Rp760
tp761
I-510
sg163
I132480
sg659
I87120
sg415
I935
s(g4
(g8
S'\x06\x00\x00\x00\x00\x00\x00\x00'
p762
tp763
Rp764
g4
(g8
S'\x00\x00\x00\x00\x00\x00\x00\x00'
p765
tp766
Rp767
g4
(g8
S'\x03\x00\x00\x00\x00\x00\x00\x00'
p768
tp769
Rp770
tp771
I-6
sg197
I-1644
sg83
I197280
sg425
I-19440
sg133
I-362880
sg393
I11
sg207
I-129600
sg323
I274
sg637
I14040
sg333
I-120
s(g4
(g8
S'\x06\x00\x00\x00\x00\x00\x00\x00'
p772
tp773
Rp774
g4
(g8
S'\x02\x00\x00\x00\x00\x00\x00\x00'
p775
tp776
Rp777
g4
(g8
S'\x04\x00\x00\x00\x00\x00\x00\x00'
p778
tp779
Rp780
tp781
I180
sg495
I-36000
sg445
I-264
sg175
I1350
sg679
I1
sg279
I-3240
sg557
I5400
s(g4
(g8
S'\x06\x00\x00\x00\x00\x00\x00\x00'
p782
tp783
Rp784
g4
(g8
S'\x01\x00\x00\x00\x00\x00\x00\x00'
p785
tp786
Rp787
g4
(g8
S'\x03\x00\x00\x00\x00\x00\x00\x00'
p788
tp789
Rp790
tp791
I144
sg93
I-405000
sg567
I28800
sg63
I-1644
sg217
I206280
s(g4
(g8
S'\x05\x00\x00\x00\x00\x00\x00\x00'
p792
tp793
Rp794
g4
(g8
S'\x01\x00\x00\x00\x00\x00\x00\x00'
p795
tp796
Rp797
g4
(g8
S'\x03\x00\x00\x00\x00\x00\x00\x00'
p798
tp799
Rp800
tp801
I-2340
sg103
I134820
sg465
I144
s(g4
(g8
S'\x05\x00\x00\x00\x00\x00\x00\x00'
p802
tp803
Rp804
g4
(g8
S'\x00\x00\x00\x00\x00\x00\x00\x00'
p805
tp806
Rp807
g4
(g8
S'\x04\x00\x00\x00\x00\x00\x00\x00'
p808
tp809
Rp810
tp811
I-15
sg435
I-510
sg475
I4860
sg53
I-145800
sg227
I-45180
sg353
I-6576
sg455
I1080
sg43
I3014
sg485
I-165
sg649
I-19440
s(g4
(g8
S'\x04\x00\x00\x00\x00\x00\x00\x00'
p812
tp813
Rp814
g4
(g8
S'\x01\x00\x00\x00\x00\x00\x00\x00'
p815
tp816
Rp817
g4
(g8
S'\x03\x00\x00\x00\x00\x00\x00\x00'
p818
tp819
Rp820
tp821
I14760
s(g4
(g8
S'\x06\x00\x00\x00\x00\x00\x00\x00'
p822
tp823
Rp824
g4
(g8
S'\x01\x00\x00\x00\x00\x00\x00\x00'
p825
tp826
Rp827
g4
(g8
S'\x04\x00\x00\x00\x00\x00\x00\x00'
p828
tp829
Rp830
tp831
I-24
sg291
I30240
sg113
I-256056
s(g4
(g8
S'\x04\x00\x00\x00\x00\x00\x00\x00'
p832
tp833
Rp834
g4
(g8
S'\x02\x00\x00\x00\x00\x00\x00\x00'
p835
tp836
Rp837
g4
(g8
S'\x04\x00\x00\x00\x00\x00\x00\x00'
p838
tp839
Rp840
tp841
I12780
sg237
I-194400
s(g4
(g8
S'\x05\x00\x00\x00\x00\x00\x00\x00'
p842
tp843
Rp844
g4
(g8
S'\x04\x00\x00\x00\x00\x00\x00\x00'
p845
tp846
Rp847
g4
(g8
S'\x04\x00\x00\x00\x00\x00\x00\x00'
p848
tp849
Rp850
tp851
I-3240
sg247
I67176
sg607
I-27720
sg33
I468000
sg505
I90
sg257
I-38880
sg73
I360576
s(g4
(g8
S'\x04\x00\x00\x00\x00\x00\x00\x00'
p852
tp853
Rp854
g4
(g8
S'\x04\x00\x00\x00\x00\x00\x00\x00'
p855
tp856
Rp857
g4
(g8
S'\x04\x00\x00\x00\x00\x00\x00\x00'
p858
tp859
Rp860
tp861
I7200
s(g4
(g8
S'\x05\x00\x00\x00\x00\x00\x00\x00'
p862
tp863
Rp864
g4
(g8
S'\x00\x00\x00\x00\x00\x00\x00\x00'
p865
tp866
Rp867
g4
(g8
S'\x03\x00\x00\x00\x00\x00\x00\x00'
p868
tp869
Rp870
tp871
I90
s(g4
(g8
S'\x05\x00\x00\x00\x00\x00\x00\x00'
p872
tp873
Rp874
g4
(g8
S'\x02\x00\x00\x00\x00\x00\x00\x00'
p875
tp876
Rp877
g4
(g8
S'\x04\x00\x00\x00\x00\x00\x00\x00'
p878
tp879
Rp880
tp881
I-2520
s(g4
(g8
S'\x04\x00\x00\x00\x00\x00\x00\x00'
p882
tp883
Rp884
g4
(g8
S'\x00\x00\x00\x00\x00\x00\x00\x00'
p885
tp886
Rp887
g4
(g8
S'\x04\x00\x00\x00\x00\x00\x00\x00'
p888
tp889
Rp890
tp891
I85
sg123
I1350
sg153
I-1320
s(g4
(g8
S'\x04\x00\x00\x00\x00\x00\x00\x00'
p892
tp893
Rp894
g4
(g8
S'\x01\x00\x00\x00\x00\x00\x00\x00'
p895
tp896
Rp897
g4
(g8
S'\x04\x00\x00\x00\x00\x00\x00\x00'
p898
tp899
Rp900
tp901
I-2040
sg669
I-81180
sg383
I2880
s(g4
(g8
S'\x06\x00\x00\x00\x00\x00\x00\x00'
p902
tp903
Rp904
g4
(g8
S'\x03\x00\x00\x00\x00\x00\x00\x00'
p905
tp906
Rp907
g4
(g8
S'\x03\x00\x00\x00\x00\x00\x00\x00'
p908
tp909
Rp910
tp911
I1440
ss(g4
(g8
S'\x05\x00\x00\x00\x00\x00\x00\x00'
p912
tp913
Rp914
g4
(g8
S'\x05\x00\x00\x00\x00\x00\x00\x00'
p915
tp916
Rp917
g4
(g8
S'\x05\x00\x00\x00\x00\x00\x00\x00'
p918
tp919
Rp920
tp921
g0
(g21
tp922
Rp923
g207
I35
sg33
I-50
sg133
I24
sg921
I1
sg861
I-10
ssg557
g0
(g21
tp924
Rp925
g207
I-18
sg33
I126
sg247
I24
sg267
I12
sg53
I-6
sg227
I-6
sg257
I-24
sg73
I54
sg557
I1
sg353
I-3
sg93
I-36
sg383
I2
sg567
I6
sg113
I-63
sg103
I11
sg217
I30
sg133
I-120
sg83
I94
sg607
I-6
sg237
I-78
ssg93
g0
(g21
tp926
Rp927
g33
I-2
sg93
I1
sg73
I-1
sg133
I2
ssg63
g0
(g21
tp928
Rp929
g133
I2
sg73
I-2
sg63
I1
sg143
I-1
ss(g4
(g8
S'\x04\x00\x00\x00\x00\x00\x00\x00'
p930
tp931
Rp932
g4
(g8
S'\x01\x00\x00\x00\x00\x00\x00\x00'
p933
tp934
Rp935
g4
(g8
S'\x05\x00\x00\x00\x00\x00\x00\x00'
p936
tp937
Rp938
tp939
g0
(g21
tp940
Rp941
g691
I-252
sg163
I288
sg313
I-72
s(g4
(g8
S'\x04\x00\x00\x00\x00\x00\x00\x00'
p942
tp943
Rp944
g4
(g8
S'\x03\x00\x00\x00\x00\x00\x00\x00'
p945
tp946
Rp947
g4
(g8
S'\x05\x00\x00\x00\x00\x00\x00\x00'
p948
tp949
Rp950
tp951
I36
sg267
I972
sg659
I432
sg83
I3828
sg237
I-4404
sg207
I-1872
sg537
I-6
sg495
I-50
sg901
I-10
sg547
I-108
sg557
I72
sg93
I-2736
sg567
I900
sg227
I-318
sg217
I2316
sg103
I612
sg53
I-432
sg353
I-170
sg363
I11
s(g4
(g8
S'\x04\x00\x00\x00\x00\x00\x00\x00'
p952
tp953
Rp954
g4
(g8
S'\x02\x00\x00\x00\x00\x00\x00\x00'
p955
tp956
Rp957
g4
(g8
S'\x05\x00\x00\x00\x00\x00\x00\x00'
p958
tp959
Rp960
tp961
I-12
sg821
I35
sg291
I24
sg113
I-2614
sg939
I1
sg841
I108
sg133
I-5040
sg607
I-648
sg247
I997
sg33
I6672
sg617
I60
sg257
I-1074
sg73
I2568
sg861
I96
s(g4
(g8
S'\x04\x00\x00\x00\x00\x00\x00\x00'
p962
tp963
Rp964
g4
(g8
S'\x04\x00\x00\x00\x00\x00\x00\x00'
p965
tp966
Rp967
g4
(g8
S'\x05\x00\x00\x00\x00\x00\x00\x00'
p968
tp969
Rp970
tp971
I-24
sg373
I-6
sg669
I-312
sg383
I132
ss(g4
(g8
S'\x06\x00\x00\x00\x00\x00\x00\x00'
p972
tp973
Rp974
g4
(g8
S'\x00\x00\x00\x00\x00\x00\x00\x00'
p975
tp976
Rp977
g4
(g8
S'\x06\x00\x00\x00\x00\x00\x00\x00'
p978
tp979
Rp980
tp981
g0
(g21
tp982
Rp983
(g4
(g8
S'\x05\x00\x00\x00\x00\x00\x00\x00'
p984
tp985
Rp986
g4
(g8
S'\x02\x00\x00\x00\x00\x00\x00\x00'
p987
tp988
Rp989
g4
(g8
S'\x06\x00\x00\x00\x00\x00\x00\x00'
p990
tp991
Rp992
tp993
I-6300
sg163
I10206000
sg175
I50625
sg267
I10206000
s(g4
(g8
S'\x03\x00\x00\x00\x00\x00\x00\x00'
p994
tp995
Rp996
g4
(g8
S'\x00\x00\x00\x00\x00\x00\x00\x00'
p997
tp998
Rp999
g4
(g8
S'\x05\x00\x00\x00\x00\x00\x00\x00'
p1000
tp1001
Rp1002
tp1003
I3375
sg301
I-4110
sg393
I274
sg515
I8100
sg637
I1308600
sg679
I85
sg921
I-118800
sg557
I1193400
sg93
I-40392000
sg63
I-32880
sg939
I52200
sg981
I1
sg103
I10138500
s(g4
(g8
S'\x04\x00\x00\x00\x00\x00\x00\x00'
p1004
tp1005
Rp1006
g4
(g8
S'\x00\x00\x00\x00\x00\x00\x00\x00'
p1007
tp1008
Rp1009
g4
(g8
S'\x06\x00\x00\x00\x00\x00\x00\x00'
p1010
tp1011
Rp1012
tp1013
I85
sg811
I-1275
sg197
I-61650
sg597
I-69300
sg617
I1308600
sg291
I1411200
sg607
I-9515700
sg821
I1193400
s(g4
(g8
S'\x04\x00\x00\x00\x00\x00\x00\x00'
p1014
tp1015
Rp1016
g4
(g8
S'\x03\x00\x00\x00\x00\x00\x00\x00'
p1017
tp1018
Rp1019
g4
(g8
S'\x06\x00\x00\x00\x00\x00\x00\x00'
p1020
tp1021
Rp1022
tp1023
I-112800
s(g4
(g8
S'\x05\x00\x00\x00\x00\x00\x00\x00'
p1024
tp1025
Rp1026
g4
(g8
S'\x03\x00\x00\x00\x00\x00\x00\x00'
p1027
tp1028
Rp1029
g4
(g8
S'\x06\x00\x00\x00\x00\x00\x00\x00'
p1030
tp1031
Rp1032
tp1033
I28800
sg911
I144000
sg691
I-8077200
sg187
I27000
sg701
I1645200
s(g4
(g8
S'\x06\x00\x00\x00\x00\x00\x00\x00'
p1034
tp1035
Rp1036
g4
(g8
S'\x03\x00\x00\x00\x00\x00\x00\x00'
p1037
tp1038
Rp1039
g4
(g8
S'\x05\x00\x00\x00\x00\x00\x00\x00'
p1040
tp1041
Rp1042
tp1043
I28800
sg143
I14400
sg751
I108000
s(g4
(g8
S'\x05\x00\x00\x00\x00\x00\x00\x00'
p1044
tp1045
Rp1046
g4
(g8
S'\x01\x00\x00\x00\x00\x00\x00\x00'
p1047
tp1048
Rp1049
g4
(g8
S'\x05\x00\x00\x00\x00\x00\x00\x00'
p1050
tp1051
Rp1052
tp1053
I-8550
sg475
I217260
sg415
I23290
s(g4
(g8
S'\x06\x00\x00\x00\x00\x00\x00\x00'
p1054
tp1055
Rp1056
g4
(g8
S'\x04\x00\x00\x00\x00\x00\x00\x00'
p1057
tp1058
Rp1059
g4
(g8
S'\x06\x00\x00\x00\x00\x00\x00\x00'
p1060
tp1061
Rp1062
tp1063
I5400
sg207
I-25542000
sg781
I31950
s(g4
(g8
S'\x03\x00\x00\x00\x00\x00\x00\x00'
p1064
tp1065
Rp1066
g4
(g8
S'\x00\x00\x00\x00\x00\x00\x00\x00'
p1067
tp1068
Rp1069
g4
(g8
S'\x06\x00\x00\x00\x00\x00\x00\x00'
p1070
tp1071
Rp1072
tp1073
I-225
sg445
I-9864
sg343
I1800
sg547
I-2376000
sg455
I54000
sg801
I-153450
sg891
I7225
s(g4
(g8
S'\x06\x00\x00\x00\x00\x00\x00\x00'
p1074
tp1075
Rp1076
g4
(g8
S'\x01\x00\x00\x00\x00\x00\x00\x00'
p1077
tp1078
Rp1079
g4
(g8
S'\x06\x00\x00\x00\x00\x00\x00\x00'
p1080
tp1081
Rp1082
tp1083
I-36
sg363
I217260
sg961
I-533700
sg831
I-3060
sg237
I-40392000
sg247
I10138500
sg279
I-118800
s(g4
(g8
S'\x05\x00\x00\x00\x00\x00\x00\x00'
p1084
tp1085
Rp1086
g4
(g8
S'\x04\x00\x00\x00\x00\x00\x00\x00'
p1087
tp1088
Rp1089
g4
(g8
S'\x05\x00\x00\x00\x00\x00\x00\x00'
p1090
tp1091
Rp1092
tp1093
I480600
sg971
I-1188000
sg73
I29386080
sg83
I29386080
sg881
I-533700
sg669
I-9515700
sg383
I1411200
sg20
I-61650
sg313
I-1188000
sg405
I-120
sg527
I4320
sg731
I-19125
sg771
I-225
sg425
I-1188000
sg323
I23290
s(g4
(g8
S'\x06\x00\x00\x00\x00\x00\x00\x00'
p1094
tp1095
Rp1096
g4
(g8
S'\x00\x00\x00\x00\x00\x00\x00\x00'
p1097
tp1098
Rp1099
g4
(g8
S'\x05\x00\x00\x00\x00\x00\x00\x00'
p1100
tp1101
Rp1102
tp1103
I-15
sg537
I-153450
s(g4
(g8
S'\x06\x00\x00\x00\x00\x00\x00\x00'
p1104
tp1105
Rp1106
g4
(g8
S'\x05\x00\x00\x00\x00\x00\x00\x00'
p1107
tp1108
Rp1109
g4
(g8
S'\x06\x00\x00\x00\x00\x00\x00\x00'
p1110
tp1111
Rp1112
tp1113
I-4320
s(g4
(g8
S'\x05\x00\x00\x00\x00\x00\x00\x00'
p1114
tp1115
Rp1116
g4
(g8
S'\x00\x00\x00\x00\x00\x00\x00\x00'
p1117
tp1118
Rp1119
g4
(g8
S'\x06\x00\x00\x00\x00\x00\x00\x00'
p1120
tp1121
Rp1122
tp1123
I-15
s(g4
(g8
S'\x02\x00\x00\x00\x00\x00\x00\x00'
p1124
tp1125
Rp1126
g4
(g8
S'\x00\x00\x00\x00\x00\x00\x00\x00'
p1127
tp1128
Rp1129
g4
(g8
S'\x06\x00\x00\x00\x00\x00\x00\x00'
p1130
tp1131
Rp1132
tp1133
I274
sg901
I-353100
sg227
I-4814550
sg217
I31604400
s(g4
(g8
S'\x04\x00\x00\x00\x00\x00\x00\x00'
p1134
tp1135
Rp1136
g4
(g8
S'\x01\x00\x00\x00\x00\x00\x00\x00'
p1137
tp1138
Rp1139
g4
(g8
S'\x06\x00\x00\x00\x00\x00\x00\x00'
p1140
tp1141
Rp1142
tp1143
I-3060
s(g4
(g8
S'\x05\x00\x00\x00\x00\x00\x00\x00'
p1144
tp1145
Rp1146
g4
(g8
S'\x05\x00\x00\x00\x00\x00\x00\x00'
p1147
tp1148
Rp1149
g4
(g8
S'\x06\x00\x00\x00\x00\x00\x00\x00'
p1150
tp1151
Rp1152
tp1153
I21600
sg53
I-8910000
s(g4
(g8
S'\x05\x00\x00\x00\x00\x00\x00\x00'
p1154
tp1155
Rp1156
g4
(g8
S'\x00\x00\x00\x00\x00\x00\x00\x00'
p1157
tp1158
Rp1159
g4
(g8
S'\x05\x00\x00\x00\x00\x00\x00\x00'
p1160
tp1161
Rp1162
tp1163
I225
sg43
I75076
sg649
I-2376000
sg871
I3375
sg495
I-2034240
sg505
I1800
s(g4
(g8
S'\x06\x00\x00\x00\x00\x00\x00\x00'
p1164
tp1165
Rp1166
g4
(g8
S'\x06\x00\x00\x00\x00\x00\x00\x00'
p1167
tp1168
Rp1169
g4
(g8
S'\x06\x00\x00\x00\x00\x00\x00\x00'
p1170
tp1171
Rp1172
tp1173
I720
sg153
I-32880
s(g4
(g8
S'\x06\x00\x00\x00\x00\x00\x00\x00'
p1174
tp1175
Rp1176
g4
(g8
S'\x05\x00\x00\x00\x00\x00\x00\x00'
p1177
tp1178
Rp1179
g4
(g8
S'\x05\x00\x00\x00\x00\x00\x00\x00'
p1180
tp1181
Rp1182
tp1183
I21600
s(g4
(g8
S'\x05\x00\x00\x00\x00\x00\x00\x00'
p1184
tp1185
Rp1186
g4
(g8
S'\x03\x00\x00\x00\x00\x00\x00\x00'
p1187
tp1188
Rp1189
g4
(g8
S'\x05\x00\x00\x00\x00\x00\x00\x00'
p1190
tp1191
Rp1192
tp1193
I-378000
sg721
I-112800
sg951
I1645200
s(g4
(g8
S'\x06\x00\x00\x00\x00\x00\x00\x00'
p1194
tp1195
Rp1196
g4
(g8
S'\x04\x00\x00\x00\x00\x00\x00\x00'
p1197
tp1198
Rp1199
g4
(g8
S'\x05\x00\x00\x00\x00\x00\x00\x00'
p1200
tp1201
Rp1202
tp1203
I-48600
sg761
I-19125
s(g4
(g8
S'\x04\x00\x00\x00\x00\x00\x00\x00'
p1204
tp1205
Rp1206
g4
(g8
S'\x04\x00\x00\x00\x00\x00\x00\x00'
p1207
tp1208
Rp1209
g4
(g8
S'\x06\x00\x00\x00\x00\x00\x00\x00'
p1210
tp1211
Rp1212
tp1213
I108000
s(g4
(g8
S'\x06\x00\x00\x00\x00\x00\x00\x00'
p1214
tp1215
Rp1216
g4
(g8
S'\x03\x00\x00\x00\x00\x00\x00\x00'
p1217
tp1218
Rp1219
g4
(g8
S'\x06\x00\x00\x00\x00\x00\x00\x00'
p1220
tp1221
Rp1222
tp1223
I-2400
sg659
I13356000
s(g4
(g8
S'\x01\x00\x00\x00\x00\x00\x00\x00'
p1224
tp1225
Rp1226
g4
(g8
S'\x00\x00\x00\x00\x00\x00\x00\x00'
p1227
tp1228
Rp1229
g4
(g8
S'\x06\x00\x00\x00\x00\x00\x00\x00'
p1230
tp1231
Rp1232
tp1233
I-120
s(g4
(g8
S'\x06\x00\x00\x00\x00\x00\x00\x00'
p1234
tp1235
Rp1236
g4
(g8
S'\x02\x00\x00\x00\x00\x00\x00\x00'
p1237
tp1238
Rp1239
g4
(g8
S'\x06\x00\x00\x00\x00\x00\x00\x00'
p1240
tp1241
Rp1242
tp1243
I450
sg741
I52200
sg435
I-10200
sg333
I-10200
s(g4
(g8
S'\x05\x00\x00\x00\x00\x00\x00\x00'
p1244
tp1245
Rp1246
g4
(g8
S'\x01\x00\x00\x00\x00\x00\x00\x00'
p1247
tp1248
Rp1249
g4
(g8
S'\x06\x00\x00\x00\x00\x00\x00\x00'
p1250
tp1251
Rp1252
tp1253
I540
sg711
I-69300
sg791
I8100
sg567
I13356000
sg577
I-9864
s(g4
(g8
S'\x04\x00\x00\x00\x00\x00\x00\x00'
p1254
tp1255
Rp1256
g4
(g8
S'\x00\x00\x00\x00\x00\x00\x00\x00'
p1257
tp1258
Rp1259
g4
(g8
S'\x05\x00\x00\x00\x00\x00\x00\x00'
p1260
tp1261
Rp1262
tp1263
I-1275
sg465
I4320
s(g4
(g8
S'\x06\x00\x00\x00\x00\x00\x00\x00'
p1264
tp1265
Rp1266
g4
(g8
S'\x02\x00\x00\x00\x00\x00\x00\x00'
p1267
tp1268
Rp1269
g4
(g8
S'\x05\x00\x00\x00\x00\x00\x00\x00'
p1270
tp1271
Rp1272
tp1273
I-6300
sg587
I144000
sg353
I-2034240
s(g4
(g8
S'\x05\x00\x00\x00\x00\x00\x00\x00'
p1274
tp1275
Rp1276
g4
(g8
S'\x04\x00\x00\x00\x00\x00\x00\x00'
p1277
tp1278
Rp1279
g4
(g8
S'\x06\x00\x00\x00\x00\x00\x00\x00'
p1280
tp1281
Rp1282
tp1283
I-48600
sg485
I-4110
sg113
I-26706216
s(g4
(g8
S'\x05\x00\x00\x00\x00\x00\x00\x00'
p1284
tp1285
Rp1286
g4
(g8
S'\x02\x00\x00\x00\x00\x00\x00\x00'
p1287
tp1288
Rp1289
g4
(g8
S'\x05\x00\x00\x00\x00\x00\x00\x00'
p1290
tp1291
Rp1292
tp1293
I95400
sg841
I3364650
sg133
I-39916800
s(g4
(g8
S'\x06\x00\x00\x00\x00\x00\x00\x00'
p1294
tp1295
Rp1296
g4
(g8
S'\x01\x00\x00\x00\x00\x00\x00\x00'
p1297
tp1298
Rp1299
g4
(g8
S'\x05\x00\x00\x00\x00\x00\x00\x00'
p1300
tp1301
Rp1302
tp1303
I540
sg851
I-1188000
sg33
I61757280
s(g4
(g8
S'\x04\x00\x00\x00\x00\x00\x00\x00'
p1304
tp1305
Rp1306
g4
(g8
S'\x02\x00\x00\x00\x00\x00\x00\x00'
p1307
tp1308
Rp1309
g4
(g8
S'\x06\x00\x00\x00\x00\x00\x00\x00'
p1310
tp1311
Rp1312
tp1313
I31950
sg257
I-8910000
sg861
I3301200
sg373
I-118800
sg123
I27000
sg627
I54000
ssg103
g0
(g21
tp1314
Rp1315
g33
I4
sg53
I-1
sg73
I5
sg83
I2
sg93
I-2
sg113
I-3
sg133
I-6
sg103
I1
ssg455
g0
(g21
tp1316
Rp1317
g33
I120
sg163
I71
sg53
I-71
sg73
I154
sg279
I-1
sg93
I-154
sg455
I1
sg133
I-120
sg425
I-14
sg291
I14
ssg811
g0
(g21
tp1318
Rp1319
g20
I385
sg691
I1680
sg701
I-240
sg187
I-144
sg267
I-2880
sg731
I35
sg143
I-144
sg741
I-20
sg761
I60
sg163
I-8640
sg659
I-5760
sg415
I-110
sg495
I2800
sg197
I300
sg861
I-480
sg425
I720
sg133
I40320
sg207
I11520
sg323
I-50
sg637
I-600
sg333
I24
sg607
I3120
sg175
I-210
sg901
I200
sg279
I120
sg557
I-700
sg93
I35160
sg567
I-2880
sg63
I300
sg217
I-20640
sg801
I120
sg103
I-13580
sg811
I1
sg435
I60
sg475
I-220
sg53
I12120
sg227
I5280
sg353
I1000
sg43
I-550
sg485
I11
sg649
I720
sg505
I-6
sg291
I-1920
sg113
I29960
sg841
I-1080
sg237
I23040
sg851
I120
sg247
I-9120
sg33
I-48480
sg821
I-1320
sg257
I5760
sg73
I-35520
sg83
I-25440
sg881
I120
sg891
I-10
sg123
I-210
sg153
I264
sg669
I6120
sg383
I-480
sg871
I-6
ssg197
g0
(g21
tp1320
Rp1321
g187
I-1
sg247
I-6
sg43
I-3
sg197
I1
sg63
I2
sg33
I-12
sg257
I6
sg73
I-12
sg83
I-24
sg113
I18
sg237
I6
sg133
I24
sg143
I-2
sg153
I3
ssg597
g0
(g21
tp1322
Rp1323
g313
I40
sg267
I-286
sg133
I720
sg207
I240
sg547
I48
sg93
I120
sg567
I-188
sg217
I-154
sg587
I-4
sg353
I14
sg597
I1
sg363
I-1
sg113
I154
sg237
I872
sg607
I71
sg247
I-71
sg33
I-960
sg617
I-14
sg257
I238
sg73
I-120
sg627
I-2
sg83
I-684
sg373
I2
sg383
I-36
ssg505
g0
(g21
tp1324
Rp1325
g435
I-10
sg505
I1
sg53
I-175
sg73
I250
sg279
I-5
sg143
I24
sg291
I50
sg63
I-50
sg123
I35
sg133
I-120
ssg291
g0
(g21
tp1326
Rp1327
g133
I-6
sg73
I11
sg53
I-6
sg291
I1
ssg607
g0
(g21
tp1328
Rp1329
g207
I6
sg33
I-30
sg247
I-1
sg267
I-2
sg257
I2
sg73
I-6
sg83
I-14
sg93
I6
sg567
I-2
sg113
I5
sg217
I-5
sg133
I24
sg607
I1
sg237
I16
ssg821
g0
(g21
tp1330
Rp1331
g207
I-18
sg33
I126
sg247
I11
sg821
I1
sg53
I-24
sg227
I-6
sg257
I-6
sg669
I-6
sg73
I94
sg83
I54
sg93
I-78
sg163
I12
sg291
I2
sg113
I-63
sg237
I-36
sg217
I30
sg133
I-120
sg495
I-3
sg103
I24
sg659
I6
ssg1023
g0
(g21
tp1332
Rp1333
g691
I47
sg313
I9
sg951
I-12
sg267
I-141
sg659
I-60
sg83
I-444
sg237
I720
sg207
I540
sg547
I54
sg93
I180
sg567
I-303
sg217
I-141
sg587
I-3
sg1213
I-3
sg353
I2
sg113
I94
sg133
I720
sg607
I36
sg247
I-24
sg33
I-1200
sg617
I-3
sg257
I90
sg73
I-120
sg861
I-60
sg971
I27
sg1023
I1
sg383
I-6
ssg1033
g0
(g21
tp1334
Rp1335
g691
I-653
sg701
I47
sg313
I-36
sg951
I120
sg267
I696
sg163
I180
sg659
I1140
sg83
I2568
sg237
I-4368
sg207
I-4650
sg607
I-318
sg547
I-288
sg557
I2
sg93
I-2580
sg567
I2070
sg227
I-24
sg217
I1581
sg1153
I6
sg103
I94
sg587
I12
sg53
I-120
sg1213
I24
sg353
I-14
sg1283
I-6
sg649
I-60
sg617
I21
sg113
I-982
sg841
I36
sg133
I-5040
sg851
I-120
sg247
I204
sg33
I8940
sg1093
I54
sg257
I-432
sg1193
I-12
sg73
I1560
sg961
I-3
sg861
I780
sg971
I-276
sg1023
I-7
sg921
I-30
sg1033
I1
sg669
I-141
sg383
I24
ssg1003
g0
(g21
tp1336
Rp1337
g20
I-50
sg187
I70
sg313
I-120
sg175
I35
sg267
I1260
sg731
I-10
sg143
I48
sg1003
I1
sg197
I-105
sg301
I-3
sg133
I-5040
sg207
I-720
sg323
I30
sg333
I-20
sg537
I-15
sg343
I2
sg547
I-60
sg557
I150
sg93
I-1440
sg567
I420
sg63
I-72
sg217
I1560
sg103
I750
sg53
I-360
sg227
I-525
sg353
I-510
sg43
I150
sg363
I45
sg113
I-3810
sg237
I-4380
sg607
I-540
sg247
I2115
sg33
I5040
sg617
I60
sg257
I-2250
sg73
I2520
sg83
I5460
sg373
I-30
sg123
I24
sg153
I-100
sg383
I420
ssg691
g0
(g21
tp1338
Rp1339
g691
I1
sg207
I15
sg33
I-38
sg73
I-6
sg861
I-1
sg93
I9
sg659
I-3
sg113
I2
sg217
I-3
sg133
I24
sg83
I-6
sg237
I9
sg567
I-3
ssg187
g0
(g21
tp1340
Rp1341
g187
I1
sg257
I-3
sg143
I2
sg133
I-6
sg83
I9
sg153
I-3
ssg701
g0
(g21
tp1342
Rp1343
g691
I-7
sg207
I-84
sg701
I1
sg53
I-6
sg33
I196
sg851
I-2
sg73
I54
sg649
I-3
sg861
I8
sg93
I-85
sg163
I9
sg659
I33
sg113
I-14
sg103
I2
sg217
I21
sg133
I-120
sg83
I24
sg669
I-3
sg237
I-36
sg567
I12
ssg1043
g0
(g21
tp1344
Rp1345
g691
I-653
sg701
I120
sg721
I-7
sg951
I47
sg1203
I-6
sg267
I180
sg1043
I1
sg751
I24
sg163
I696
sg659
I2070
sg83
I1560
sg425
I-36
sg237
I-2580
sg207
I-4650
sg637
I21
sg495
I-14
sg547
I-60
sg93
I-4368
sg567
I1140
sg227
I-24
sg217
I1581
sg103
I204
sg1183
I6
sg53
I-432
sg649
I-288
sg821
I2
sg291
I24
sg113
I-982
sg841
I36
sg133
I-5040
sg851
I-276
sg247
I94
sg607
I-141
sg33
I8940
sg1093
I54
sg971
I-120
sg1193
I-12
sg73
I2568
sg861
I780
sg257
I-120
sg881
I-3
sg921
I-30
sg669
I-318
sg911
I12
ssg143
g0
(g21
tp1346
Rp1347
g133
I-1
sg143
I1
ssg751
g0
(g21
tp1348
Rp1349
g207
I-120
sg33
I220
sg163
I11
sg53
I-6
sg73
I54
sg649
I-6
sg861
I20
sg751
I1
sg93
I-99
sg659
I54
sg133
I-120
sg851
I-9
ssg1053
g0
(g21
tp1350
Rp1351
g691
I4104
sg163
I-6048
sg313
I384
sg951
I-504
sg267
I-6048
sg1053
I1
sg701
I-504
sg659
I-8352
sg495
I916
sg741
I-10
sg83
I-25584
sg425
I384
sg237
I32352
sg207
I20424
sg637
I-416
sg537
I35
sg851
I384
sg901
I116
sg547
I864
sg557
I-494
sg93
I32352
sg567
I-8352
sg227
I2665
sg217
I-22456
sg801
I35
sg103
I-6502
sg475
I-50
sg53
I6024
sg353
I916
sg363
I-50
sg649
I864
sg617
I-416
sg291
I-624
sg113
I20948
sg939
I-10
sg841
I-1512
sg133
I40320
sg607
I5256
sg247
I-6502
sg279
I24
sg33
I-58416
sg821
I-494
sg257
I6024
sg1193
I72
sg73
I-25584
sg961
I144
sg861
I-1776
sg971
I384
sg881
I144
sg921
I24
sg373
I24
sg1093
I-96
sg1293
I-16
sg669
I5256
sg383
I-624
ssg475
g0
(g21
tp1352
Rp1353
g33
I96
sg163
I36
sg53
I-71
sg425
I-4
sg73
I154
sg279
I-1
sg83
I24
sg93
I-104
sg475
I1
sg291
I14
sg113
I-50
sg133
I-120
sg495
I-10
sg103
I35
ssg415
g0
(g21
tp1354
Rp1355
g20
I-6
sg33
I72
sg73
I148
sg53
I-60
sg113
I-88
sg43
I11
sg153
I-6
sg83
I48
sg163
I12
sg93
I-60
sg435
I-1
sg291
I8
sg63
I-11
sg123
I6
sg415
I1
sg133
I-120
sg143
I6
sg495
I-8
sg103
I48
ssg1063
g0
(g21
tp1356
Rp1357
g691
I-626
sg701
I54
sg951
I54
sg1203
I-9
sg267
I220
sg751
I20
sg163
I220
sg659
I1780
sg83
I1560
sg237
I-2980
sg1063
I1
sg207
I-6350
sg607
I-99
sg1113
I-4
sg547
I-120
sg93
I-2980
sg567
I1780
sg227
I-6
sg217
I1091
sg103
I54
sg1183
I20
sg1153
I20
sg53
I-120
sg1213
I20
sg1283
I-9
sg649
I-120
sg113
I-582
sg841
I11
sg133
I-5040
sg851
I-380
sg247
I54
sg33
I9948
sg1093
I121
sg971
I-380
sg1193
I-6
sg73
I1560
sg1173
I2
sg861
I1570
sg257
I-120
sg921
I-130
sg669
I-99
ssg207
g0
(g21
tp1358
Rp1359
g207
I1
sg33
I-3
sg133
I2
ssg781
g0
(g21
tp1360
Rp1361
g691
I-376
sg701
I96
sg721
I-8
sg267
I120
sg751
I12
sg163
I1422
sg659
I1776
sg711
I-5
sg83
I1560
sg425
I-156
sg133
I-5040
sg207
I-2880
sg637
I94
sg781
I1
sg495
I-86
sg279
I-6
sg93
I-5496
sg567
I480
sg227
I-71
sg217
I1898
sg801
I-1
sg103
I547
sg455
I6
sg475
I5
sg53
I-1074
sg649
I-360
sg291
I132
sg113
I-1522
sg841
I71
sg237
I-2040
sg851
I-108
sg247
I154
sg607
I-154
sg33
I7680
sg821
I14
sg257
I-120
sg73
I3828
sg861
I240
sg881
I-14
sg669
I-643
sg911
I24
ssg1073
g0
(g21
tp1362
Rp1363
g20
I274
sg187
I-450
sg313
I2880
sg175
I-225
sg267
I-17100
sg731
I85
sg143
I-240
sg587
I-120
sg1003
I-15
sg1233
I2
sg197
I675
sg301
I45
sg1133
I-3
sg1073
I1
sg133
I40320
sg207
I7200
sg323
I-255
sg333
I170
sg537
I270
sg343
I-30
sg547
I1440
sg557
I-1530
sg93
I10800
sg567
I-5640
sg63
I360
sg217
I-13860
sg577
I54
sg103
I-4932
sg527
I-36
sg53
I2160
sg227
I4050
sg515
I-18
sg353
I5850
sg43
I-822
sg597
I90
sg363
I-900
sg113
I28656
sg237
I44640
sg607
I6390
sg247
I-18540
sg33
I-43200
sg617
I-1260
sg257
I23760
sg73
I-17280
sg627
I-180
sg83
I-48864
sg373
I720
sg123
I-120
sg153
I548
sg383
I-5820
ssg445
g0
(g21
tp1364
Rp1365
g33
I-600
sg163
I-355
sg53
I580
sg495
I85
sg445
I1
sg73
I-1044
sg279
I20
sg83
I-120
sg93
I770
sg475
I-15
sg291
I-155
sg113
I274
sg133
I720
sg465
I-1
sg425
I70
sg103
I-225
sg455
I-5
ssg343
g0
(g21
tp1366
Rp1367
g187
I35
sg333
I-10
sg257
I-175
sg343
I1
sg83
I250
sg383
I50
sg373
I-5
sg133
I-120
sg143
I24
sg153
I-50
ssg547
g0
(g21
tp1368
Rp1369
g207
I12
sg33
I-36
sg257
I2
sg267
I-3
sg547
I1
sg83
I-14
sg567
I-7
sg133
I24
sg237
I21
ssg1013
g0
(g21
tp1370
Rp1371
g691
I-22560
sg20
I-1644
sg163
I21600
sg313
I-19440
sg187
I1350
sg267
I132480
sg951
I5760
sg731
I-510
sg143
I720
sg343
I90
sg761
I-225
sg587
I1440
sg659
I28800
sg1233
I-6
sg415
I274
sg197
I-2475
sg301
I-165
sg83
I360576
sg1073
I-6
sg237
I-405000
sg207
I-129600
sg323
I935
sg333
I-510
sg537
I-2340
sg495
I-6576
sg175
I1350
sg901
I-2040
sg547
I-19440
sg557
I14760
sg93
I-194400
sg567
I87120
sg63
I-1320
sg217
I206280
sg577
I-264
sg1263
I-15
sg103
I67176
sg1013
I1
sg1143
I-24
sg435
I-120
sg527
I144
sg53
I-38880
sg227
I-45180
sg515
I144
sg353
I-36000
sg43
I3014
sg597
I-900
sg363
I4860
sg1133
I11
sg961
I-2520
sg617
I14040
sg1213
I360
sg291
I2880
sg113
I-256056
sg939
I360
sg841
I12780
sg133
I-362880
sg891
I85
sg607
I-81180
sg247
I134820
sg33
I468000
sg821
I5400
sg1313
I180
sg257
I-145800
sg73
I197280
sg627
I1080
sg861
I7200
sg971
I-3240
sg1023
I-480
sg373
I-3240
sg123
I720
sg153
I-1644
sg669
I-27720
sg383
I30240
sg1003
I90
ssg801
g0
(g21
tp1372
Rp1373
g163
I-180
sg659
I-84
sg425
I16
sg133
I720
sg207
I144
sg637
I-8
sg279
I2
sg93
I668
sg227
I35
sg217
I-208
sg801
I1
sg103
I-177
sg475
I-3
sg53
I238
sg649
I12
sg291
I-36
sg113
I358
sg237
I192
sg495
I38
sg247
I-50
sg33
I-816
sg821
I-10
sg257
I24
sg73
I-684
sg83
I-264
sg669
I72
ssg891
g0
(g21
tp1374
Rp1375
g691
I-96
sg187
I36
sg163
I432
sg175
I36
sg267
I432
sg731
I-6
sg143
I36
sg761
I-6
sg659
I288
sg415
I11
sg197
I-66
sg83
I3792
sg237
I-3024
sg207
I-1008
sg323
I11
sg333
I-6
sg495
I-176
sg901
I-16
sg557
I96
sg93
I-3024
sg567
I288
sg63
I-66
sg217
I2088
sg103
I1416
sg435
I-6
sg891
I1
sg53
I-1008
sg227
I-648
sg353
I-176
sg43
I121
sg291
I96
sg113
I-3928
sg841
I72
sg133
I-5040
sg607
I-360
sg247
I1416
sg33
I5448
sg821
I96
sg257
I-1008
sg73
I3792
sg861
I24
sg123
I36
sg153
I-66
sg669
I-360
sg383
I96
sg20
I-66
ssg1083
g0
(g21
tp1376
Rp1377
g163
I-777000
sg267
I-777000
sg279
I4800
sg515
I-225
sg637
I-82100
sg921
I16800
sg557
I-48775
sg93
I3492000
sg939
I-1625
sg103
I-593000
sg1183
I-3000
sg597
I3850
sg291
I-76200
sg607
I671150
sg821
I-48775
sg1023
I9400
sg1033
I-2400
sg911
I-12000
sg691
I754400
sg701
I-145200
sg1043
I-2400
sg751
I-12000
sg1053
I250
sg475
I-7960
sg1243
I-25
sg1063
I-600
sg207
I2712000
sg781
I-1775
sg445
I274
sg547
I216000
sg455
I-3000
sg801
I5150
sg1083
I1
sg363
I-7960
sg961
I32050
sg831
I85
sg237
I3492000
sg247
I-593000
sg1093
I-54600
sg971
I138000
sg73
I-2342880
sg83
I-2342880
sg881
I32050
sg669
I671150
sg383
I-76200
sg993
I350
sg313
I78000
sg527
I-120
sg425
I78000
sg537
I5150
sg1113
I600
sg901
I12525
sg227
I237850
sg217
I-2482900
sg1143
I85
sg1153
I-3000
sg53
I600000
sg33
I-5942880
sg649
I216000
sg495
I95990
sg617
I-82100
sg1173
I-120
sg1193
I32400
sg721
I9400
sg951
I-145200
sg1203
I5400
sg1223
I200
sg659
I-1317000
sg741
I-1625
sg1273
I350
sg1253
I-15
sg711
I3850
sg791
I-225
sg567
I-1317000
sg577
I274
sg465
I-120
sg587
I-12000
sg353
I95990
sg1283
I5400
sg113
I1857576
sg841
I-219025
sg133
I3628800
sg1303
I-15
sg851
I138000
sg1213
I-12000
sg1313
I-1775
sg257
I600000
sg861
I-400200
sg373
I4800
sg1293
I-5500
sg627
I-3000
ssg363
g0
(g21
tp1378
Rp1379
g33
I96
sg247
I35
sg267
I36
sg313
I-4
sg373
I-1
sg257
I-71
sg73
I24
sg83
I154
sg353
I-10
sg383
I14
sg113
I-50
sg133
I-120
sg363
I1
sg237
I-104
ssg961
g0
(g21
tp1380
Rp1381
g691
I42
sg163
I-24
sg313
I6
sg951
I-6
sg267
I-108
sg659
I-72
sg83
I-444
sg237
I600
sg207
I360
sg547
I18
sg557
I-1
sg93
I336
sg567
I-162
sg227
I9
sg217
I-256
sg103
I-26
sg53
I24
sg353
I5
sg961
I1
sg113
I214
sg841
I-9
sg133
I720
sg607
I63
sg247
I-57
sg33
I-1056
sg617
I-5
sg257
I90
sg73
I-264
sg861
I-24
sg971
I6
sg669
I26
sg383
I-6
ssg831
g0
(g21
tp1382
Rp1383
g691
I2820
sg701
I-720
sg721
I60
sg267
I-1800
sg751
I-60
sg163
I-13530
sg659
I-11700
sg711
I75
sg741
I-15
sg83
I-17520
sg425
I1800
sg237
I19800
sg207
I18000
sg637
I-1230
sg781
I-15
sg495
I2105
sg445
I11
sg901
I85
sg279
I180
sg557
I-225
sg791
I-6
sg93
I45180
sg567
I-3600
sg227
I2415
sg217
I-20010
sg801
I105
sg103
I-9240
sg455
I-90
sg475
I-240
sg53
I12420
sg353
I274
sg649
I2520
sg831
I1
sg291
I-2130
sg113
I20204
sg841
I-1065
sg133
I40320
sg851
I540
sg247
I-3954
sg607
I2310
sg33
I-56400
sg821
I-720
sg257
I2520
sg73
I-35664
sg861
I-1200
sg881
I210
sg465
I-6
sg669
I7485
sg383
I-120
sg911
I-180
ssg237
g0
(g21
tp1384
Rp1385
g33
I-2
sg237
I1
sg133
I2
sg83
I-1
ssg247
g0
(g21
tp1386
Rp1387
g33
I4
sg257
I-1
sg73
I2
sg83
I5
sg113
I-3
sg237
I-2
sg133
I-6
sg247
I1
ssg1093
g0
(g21
tp1388
Rp1389
g691
I-6
sg207
I-131
sg1093
I1
sg33
I226
sg971
I-4
sg73
I24
sg921
I-1
sg861
I26
sg93
I-44
sg659
I24
sg113
I-6
sg217
I11
sg133
I-120
sg83
I24
sg851
I-4
sg237
I-44
sg567
I24
ssg971
g0
(g21
tp1390
Rp1391
g207
I24
sg33
I-44
sg971
I1
sg83
I-6
sg567
I-6
sg133
I24
sg861
I-4
sg237
I11
ssg73
g0
(g21
tp1392
Rp1393
g133
I-1
sg73
I1
ssg83
g0
(g21
tp1394
Rp1395
g133
I-1
sg83
I1
ssg881
g0
(g21
tp1396
Rp1397
g691
I42
sg163
I-108
sg267
I-24
sg701
I-6
sg659
I-162
sg83
I-264
sg425
I6
sg237
I336
sg207
I360
sg637
I-5
sg495
I5
sg93
I600
sg567
I-72
sg227
I9
sg217
I-256
sg103
I-57
sg53
I90
sg649
I18
sg291
I-6
sg113
I214
sg841
I-9
sg133
I720
sg851
I6
sg247
I-26
sg607
I26
sg33
I-1056
sg821
I-1
sg257
I24
sg73
I-444
sg861
I-24
sg881
I1
sg669
I63
ssg911
g0
(g21
tp1398
Rp1399
g207
I-60
sg33
I180
sg163
I36
sg53
I-24
sg73
I94
sg649
I-12
sg93
I-141
sg659
I47
sg133
I-120
sg425
I-3
sg291
I2
sg911
I1
ssg669
g0
(g21
tp1400
Rp1401
g207
I6
sg33
I-30
sg163
I-2
sg53
I2
sg73
I-14
sg83
I-6
sg93
I16
sg103
I-1
sg659
I-2
sg113
I5
sg217
I-5
sg133
I24
sg669
I1
sg237
I6
ssg383
g0
(g21
tp1402
Rp1403
g257
I-6
sg133
I-6
sg383
I1
sg83
I11
ssg993
g0
(g21
tp1404
Rp1405
g993
I1
sg691
I5892
sg701
I-564
sg313
I768
sg951
I-1224
sg267
I-8472
sg163
I-3240
sg659
I-9360
sg495
I154
sg83
I-25584
sg425
I120
sg237
I39456
sg207
I30120
sg637
I-154
sg537
I9
sg607
I5266
sg597
I26
sg901
I14
sg547
I2592
sg557
I-150
sg93
I26160
sg567
I-15384
sg227
I927
sg217
I-19412
sg1153
I-24
sg103
I-2514
sg587
I-144
sg53
I2520
sg1213
I-144
sg353
I532
sg1283
I36
sg363
I-26
sg649
I720
sg821
I-71
sg291
I-120
sg113
I13844
sg939
I-1
sg881
I71
sg841
I-1071
sg133
I40320
sg851
I720
sg247
I-4078
sg33
I-66480
sg617
I-616
sg1313
I-9
sg257
I6024
sg1193
I144
sg73
I-17520
sg961
I162
sg627
I-24
sg861
I-4080
sg971
I1536
sg1023
I84
sg921
I120
sg1033
I-12
sg373
I24
sg1093
I-324
sg1293
I-14
sg669
I3078
sg383
I-624
ssg313
g0
(g21
tp1406
Rp1407
g33
I-24
sg313
I1
sg257
I9
sg267
I-9
sg83
I-26
sg383
I-1
sg133
I24
sg237
I26
ssg405
g0
(g21
tp1408
Rp1409
g435
I85
sg505
I-15
sg53
I1350
sg405
I1
sg73
I-1644
sg279
I90
sg143
I-120
sg291
I-510
sg63
I274
sg123
I-225
sg133
I720
sg465
I-6
ssg527
g0
(g21
tp1410
Rp1411
g257
I-225
sg527
I1
sg83
I274
sg373
I-15
sg133
I-120
sg383
I85
ssg731
g0
(g21
tp1412
Rp1413
g20
I11
sg187
I-12
sg175
I-6
sg267
I-72
sg731
I1
sg143
I-12
sg197
I18
sg237
I432
sg207
I72
sg323
I-3
sg333
I2
sg557
I-12
sg93
I216
sg567
I-24
sg227
I72
sg217
I-180
sg103
I-132
sg53
I72
sg63
I18
sg353
I36
sg43
I-33
sg113
I576
sg133
I720
sg607
I36
sg247
I-252
sg33
I-648
sg257
I216
sg73
I-432
sg83
I-672
sg123
I-6
sg153
I22
sg383
I-24
ssg771
g0
(g21
tp1414
Rp1415
g20
I675
sg187
I-120
sg163
I-17100
sg711
I90
sg175
I-225
sg405
I2
sg143
I-240
sg761
I85
sg659
I-5640
sg415
I-255
sg771
I1
sg197
I274
sg425
I2880
sg237
I10800
sg393
I-3
sg207
I7200
sg637
I-1260
sg445
I54
sg279
I720
sg791
I-18
sg93
I44640
sg455
I-180
sg63
I548
sg217
I-13860
sg801
I270
sg103
I-18540
sg465
I-36
sg435
I170
sg475
I-900
sg53
I23760
sg227
I4050
sg43
I-822
sg485
I45
sg649
I1440
sg821
I-1530
sg291
I-5820
sg113
I28656
sg133
I40320
sg495
I5850
sg247
I-4932
sg33
I-43200
sg505
I-30
sg257
I2160
sg73
I-48864
sg83
I-17280
sg871
I-15
sg123
I-450
sg153
I360
sg669
I6390
sg911
I-120
ssg425
g0
(g21
tp1416
Rp1417
g33
I-24
sg163
I-9
sg53
I9
sg73
I-26
sg93
I26
sg291
I-1
sg133
I24
sg425
I1
ssg323
g0
(g21
tp1418
Rp1419
g267
I12
sg323
I1
sg247
I48
sg33
I72
sg333
I-1
sg63
I-6
sg187
I6
sg257
I-60
sg73
I48
sg143
I6
sg353
I-8
sg383
I8
sg43
I11
sg113
I-88
sg237
I-60
sg197
I-6
sg133
I-120
sg83
I148
sg153
I-11
ssg1103
g0
(g21
tp1420
Rp1421
g163
I-1108800
sg175
I-7875
sg267
I-540000
sg1003
I-225
sg301
I274
sg393
I-50
sg637
I-134400
sg679
I-10
sg921
I3600
sg557
I-88800
sg93
I3888000
sg63
I6576
sg939
I-2550
sg103
I-1103700
sg1183
I-720
sg811
I150
sg197
I9590
sg485
I750
sg617
I-46200
sg291
I-190800
sg607
I585000
sg821
I-129450
sg911
I-14400
sg691
I492000
sg187
I-4200
sg701
I-111600
sg1043
I-1200
sg143
I-2880
sg751
I-7200
sg1053
I450
sg415
I-4250
sg207
I1854000
sg781
I-2700
sg445
I1500
sg343
I-120
sg547
I72000
sg455
I-7200
sg801
I18450
sg891
I-850
sg363
I-8220
sg961
I21300
sg831
I300
sg237
I2844000
sg247
I-816300
sg279
I18000
sg1093
I-16200
sg971
I36000
sg73
I-3065760
sg83
I-2340000
sg881
I41400
sg669
I876000
sg383
I-72000
sg20
I11250
sg313
I36000
sg405
I24
sg731
I2250
sg771
I35
sg425
I144000
sg323
I-2740
sg1103
I1
sg537
I6750
sg901
I29700
sg227
I456750
sg217
I-2563800
sg53
I1062000
sg1163
I-15
sg43
I-13700
sg649
I216000
sg871
I-525
sg495
I253500
sg505
I-360
sg153
I6000
sg1193
I14400
sg721
I8400
sg951
I-56400
sg1203
I1800
sg761
I2975
sg659
I-1090800
sg741
I-4800
sg435
I2040
sg333
I1200
sg711
I7800
sg791
I-1050
sg567
I-720000
sg1263
I85
sg465
I-720
sg1273
I300
sg475
I-30300
sg353
I128400
sg113
I2499000
sg1293
I-4200
sg841
I-234900
sg133
I3628800
sg1303
I-30
sg851
I72000
sg33
I-5220000
sg257
I594000
sg861
I-180000
sg373
I3600
sg123
I-5400
ssg537
g0
(g21
tp1422
Rp1423
g313
I16
sg267
I-180
sg133
I720
sg207
I144
sg537
I1
sg547
I12
sg557
I-10
sg93
I192
sg567
I-84
sg227
I35
sg217
I-208
sg103
I-50
sg53
I24
sg353
I38
sg363
I-3
sg113
I358
sg237
I668
sg607
I72
sg247
I-177
sg33
I-816
sg617
I-8
sg257
I238
sg73
I-264
sg83
I-684
sg373
I2
sg383
I-36
ssg1113
g0
(g21
tp1424
Rp1425
g691
I35
sg207
I1100
sg1183
I-5
sg1093
I-10
sg33
I-1524
sg971
I50
sg1113
I1
sg73
I-120
sg1173
I-1
sg921
I40
sg861
I-335
sg93
I250
sg1153
I-5
sg659
I-175
sg113
I24
sg217
I-50
sg133
I720
sg83
I-120
sg851
I50
sg237
I250
sg567
I-175
ssg1123
g0
(g21
tp1426
Rp1427
g993
I300
sg163
I-540000
sg175
I-7875
sg267
I-1108800
sg1003
I-525
sg301
I750
sg515
I-1050
sg637
I-46200
sg921
I3600
sg557
I-129450
sg1123
I1
sg63
I6000
sg939
I-4800
sg103
I-816300
sg811
I85
sg197
I11250
sg597
I7800
sg617
I-134400
sg291
I-72000
sg607
I876000
sg821
I-88800
sg1023
I8400
sg1033
I-1200
sg691
I492000
sg187
I-5400
sg701
I-56400
sg143
I-2880
sg1053
I450
sg475
I-8220
sg415
I-2740
sg207
I1854000
sg1073
I35
sg343
I-360
sg547
I216000
sg1013
I-10
sg801
I6750
sg891
I-850
sg363
I-30300
sg961
I41400
sg237
I3888000
sg247
I-1103700
sg279
I3600
sg1093
I-16200
sg971
I72000
sg73
I-2340000
sg83
I-3065760
sg881
I21300
sg669
I585000
sg383
I-190800
sg20
I9590
sg313
I144000
sg527
I-720
sg731
I2975
sg425
I36000
sg323
I-4250
sg537
I18450
sg93
I2844000
sg1133
I-50
sg901
I29700
sg227
I456750
sg217
I-2563800
sg1143
I300
sg1153
I-720
sg53
I594000
sg33
I-5220000
sg43
I-13700
sg649
I72000
sg871
I-225
sg495
I128400
sg505
I-120
sg153
I6576
sg1193
I14400
sg951
I-111600
sg761
I2250
sg659
I-720000
sg1233
I24
sg741
I-2550
sg435
I1200
sg333
I2040
sg1253
I-30
sg1163
I-15
sg567
I-1090800
sg577
I1500
sg1263
I150
sg587
I-14400
sg353
I253500
sg1283
I1800
sg485
I274
sg113
I2499000
sg1293
I-4200
sg841
I-234900
sg133
I3628800
sg851
I36000
sg1213
I-7200
sg1313
I-2700
sg257
I1062000
sg861
I-180000
sg373
I18000
sg123
I-4200
sg627
I-7200
ssg1133
g0
(g21
tp1428
Rp1429
g187
I225
sg313
I-420
sg527
I12
sg143
I120
sg1233
I-1
sg301
I-15
sg133
I-5040
sg323
I85
sg333
I-85
sg343
I15
sg1133
I1
sg63
I-120
sg577
I-12
sg267
I2130
sg197
I-225
sg353
I-1020
sg43
I274
sg363
I180
sg113
I-3288
sg237
I-4620
sg247
I2700
sg33
I3600
sg257
I-4830
sg73
I1440
sg627
I30
sg83
I7908
sg373
I-210
sg153
I-274
sg383
I1440
ssg901
g0
(g21
tp1430
Rp1431
g691
I18
sg163
I-54
sg267
I-54
sg659
I-54
sg83
I-444
sg237
I432
sg207
I198
sg607
I45
sg901
I1
sg557
I-6
sg93
I432
sg567
I-54
sg227
I45
sg217
I-279
sg103
I-111
sg53
I90
sg353
I11
sg291
I-6
sg113
I382
sg841
I-9
sg133
I720
sg495
I11
sg247
I-111
sg33
I-876
sg821
I-6
sg257
I90
sg73
I-444
sg861
I-6
sg669
I45
sg383
I-6
ssg227
g0
(g21
tp1432
Rp1433
g207
I2
sg33
I-22
sg247
I-3
sg53
I2
sg113
I13
sg257
I2
sg73
I-14
sg83
I-14
sg93
I8
sg227
I1
sg237
I8
sg217
I-4
sg133
I24
sg103
I-3
ssg217
g0
(g21
tp1434
Rp1435
g207
I-1
sg33
I7
sg73
I2
sg83
I2
sg93
I-2
sg113
I-1
sg217
I1
sg133
I-6
sg237
I-2
ssg1143
g0
(g21
tp1436
Rp1437
g691
I2820
sg163
I-1800
sg313
I1800
sg951
I-720
sg267
I-13530
sg587
I-180
sg659
I-3600
sg83
I-35664
sg237
I45180
sg207
I18000
sg515
I-6
sg537
I105
sg495
I274
sg901
I85
sg547
I2520
sg557
I-720
sg93
I19800
sg567
I-11700
sg227
I2415
sg217
I-20010
sg577
I11
sg103
I-3954
sg1143
I1
sg527
I-6
sg53
I2520
sg1213
I-60
sg353
I2105
sg597
I75
sg363
I-240
sg961
I210
sg821
I-225
sg291
I-120
sg113
I20204
sg939
I-15
sg841
I-1065
sg133
I40320
sg607
I7485
sg247
I-9240
sg33
I-56400
sg617
I-1230
sg1313
I-15
sg257
I12420
sg73
I-17520
sg627
I-90
sg861
I-1200
sg971
I540
sg1023
I60
sg373
I180
sg669
I2310
sg383
I-2130
ssg1153
g0
(g21
tp1438
Rp1439
g207
I-175
sg33
I250
sg1153
I1
sg971
I-10
sg921
I-5
sg83
I24
sg567
I35
sg133
I-120
sg861
I50
sg237
I-50
ssg53
g0
(g21
tp1440
Rp1441
g133
I2
sg73
I-3
sg53
I1
ssg33
g0
(g21
tp1442
Rp1443
g33
I1
sg133
I-1
ssg43
g0
(g21
tp1444
Rp1445
g33
I2
sg73
I4
sg113
I-4
sg43
I1
sg143
I1
sg63
I-1
sg133
I-6
sg83
I4
sg153
I-1
ssg649
g0
(g21
tp1446
Rp1447
g207
I12
sg33
I-36
sg163
I-3
sg53
I2
sg73
I-14
sg93
I21
sg649
I1
sg659
I-7
sg133
I24
ssg871
g0
(g21
tp1448
Rp1449
g20
I-105
sg187
I24
sg163
I1260
sg175
I35
sg143
I48
sg761
I-10
sg659
I420
sg415
I30
sg197
I-50
sg425
I-120
sg237
I-1440
sg207
I-720
sg637
I60
sg279
I-30
sg93
I-4380
sg63
I-100
sg217
I1560
sg801
I-15
sg103
I2115
sg435
I-20
sg475
I45
sg53
I-2250
sg227
I-525
sg43
I150
sg485
I-3
sg649
I-60
sg505
I2
sg871
I1
sg113
I-3810
sg133
I-5040
sg495
I-510
sg247
I750
sg33
I5040
sg821
I150
sg257
I-360
sg73
I5460
sg83
I2520
sg123
I70
sg153
I-72
sg669
I-540
sg291
I420
ssg495
g0
(g21
tp1450
Rp1451
g33
I-18
sg163
I-3
sg53
I9
sg73
I-26
sg83
I-6
sg93
I15
sg291
I-1
sg113
I11
sg133
I24
sg495
I1
sg103
I-6
ssg617
g0
(g21
tp1452
Rp1453
g207
I-36
sg33
I156
sg247
I9
sg617
I1
sg313
I-2
sg257
I-24
sg73
I24
sg547
I-3
sg83
I94
sg353
I-1
sg93
I-24
sg383
I2
sg267
I27
sg567
I21
sg113
I-26
sg217
I26
sg133
I-120
sg607
I-9
sg237
I-115
ssg1173
g0
(g21
tp1454
Rp1455
g207
I-225
sg33
I274
sg1173
I1
sg921
I-15
sg861
I85
sg133
I-120
ssg153
g0
(g21
tp1456
Rp1457
g153
I1
sg143
I-1
sg133
I2
sg83
I-2
ssg1183
g0
(g21
tp1458
Rp1459
g207
I-175
sg33
I250
sg73
I24
sg921
I-5
sg861
I50
sg93
I-50
sg659
I35
sg133
I-120
sg851
I-10
sg1183
I1
ssg1193
g0
(g21
tp1460
Rp1461
g691
I73
sg163
I-36
sg951
I-7
sg267
I-36
sg701
I-7
sg659
I-180
sg83
I-264
sg237
I428
sg207
I598
sg851
I16
sg547
I12
sg93
I428
sg567
I-180
sg227
I2
sg217
I-191
sg103
I-14
sg53
I24
sg649
I12
sg113
I122
sg841
I-3
sg133
I720
sg607
I21
sg247
I-14
sg33
I-1236
sg1093
I-4
sg971
I16
sg669
I21
sg73
I-264
sg861
I-84
sg257
I24
sg921
I2
sg1193
I1
ssg721
g0
(g21
tp1462
Rp1463
g691
I47
sg163
I-141
sg721
I1
sg751
I-3
sg701
I-12
sg659
I-303
sg83
I-120
sg425
I9
sg237
I180
sg207
I540
sg637
I-3
sg495
I2
sg93
I720
sg567
I-60
sg217
I-141
sg103
I-24
sg53
I90
sg649
I54
sg291
I-6
sg113
I94
sg133
I720
sg851
I27
sg33
I-1200
sg73
I-444
sg861
I-60
sg669
I36
sg911
I-3
ssg951
g0
(g21
tp1464
Rp1465
g691
I-7
sg207
I-84
sg247
I2
sg267
I9
sg951
I1
sg33
I196
sg971
I-2
sg73
I24
sg547
I-3
sg861
I8
sg257
I-6
sg93
I-36
sg659
I12
sg113
I-14
sg217
I21
sg133
I-120
sg83
I54
sg607
I-3
sg237
I-85
sg567
I33
ssg1203
g0
(g21
tp1466
Rp1467
g691
I54
sg163
I-44
sg1203
I1
sg751
I-4
sg701
I-6
sg659
I-286
sg83
I-120
sg237
I220
sg207
I830
sg921
I10
sg93
I496
sg567
I-120
sg217
I-99
sg103
I-6
sg1183
I-2
sg53
I24
sg649
I24
sg113
I54
sg133
I720
sg851
I56
sg33
I-1380
sg1093
I-9
sg971
I20
sg73
I-264
sg861
I-180
sg669
I11
ssg761
g0
(g21
tp1468
Rp1469
g20
I18
sg187
I-6
sg163
I-72
sg175
I-6
sg143
I-12
sg761
I1
sg659
I-24
sg415
I-3
sg197
I11
sg237
I216
sg207
I72
sg93
I432
sg63
I22
sg217
I-180
sg103
I-252
sg435
I2
sg53
I216
sg227
I72
sg43
I-33
sg291
I-24
sg113
I576
sg133
I720
sg495
I36
sg247
I-132
sg33
I-648
sg821
I-12
sg257
I72
sg73
I-672
sg83
I-432
sg123
I-12
sg153
I18
sg669
I36
ssg1223
g0
(g21
tp1470
Rp1471
g691
I7213
sg701
I-1050
sg313
I180
sg721
I47
sg951
I-1050
sg1203
I81
sg267
I-4140
sg1043
I-12
sg751
I-180
sg163
I-4140
sg1223
I1
sg659
I-15690
sg83
I-17520
sg425
I180
sg237
I30780
sg1063
I-9
sg207
I42300
sg637
I-141
sg495
I94
sg1113
I18
sg901
I2
sg547
I1800
sg557
I-24
sg93
I30780
sg567
I-15690
sg227
I342
sg961
I36
sg217
I-15546
sg1153
I-90
sg103
I-1614
sg1183
I-90
sg587
I-60
sg53
I2520
sg1033
I-12
sg1213
I-180
sg353
I94
sg1283
I81
sg649
I1800
sg821
I-24
sg291
I-120
sg113
I9224
sg841
I-531
sg133
I40320
sg851
I2520
sg247
I-1614
sg607
I2583
sg33
I-74544
sg1093
I-909
sg257
I2520
sg1193
I198
sg73
I-17520
sg1173
I-6
sg861
I-8610
sg971
I2520
sg881
I36
sg921
I540
sg1023
I47
sg1293
I-3
sg617
I-141
sg669
I2583
sg383
I-120
sg911
I-60
ssg659
g0
(g21
tp1472
Rp1473
g207
I-3
sg33
I9
sg73
I2
sg93
I-3
sg659
I1
sg133
I-6
ssg1233
g0
(g21
tp1474
Rp1475
g187
I-225
sg527
I-6
sg333
I85
sg373
I90
sg257
I1350
sg343
I-15
sg83
I-1644
sg383
I-510
sg1233
I1
sg133
I720
sg143
I-120
sg153
I274
ssg1243
g0
(g21
tp1476
Rp1477
g993
I-14
sg691
I-73696
sg701
I12912
sg313
I-4560
sg711
I-154
sg721
I-752
sg951
I12912
sg1203
I-648
sg267
I58920
sg1043
I192
sg1173
I24
sg751
I1440
sg1053
I-1
sg163
I58920
sg1223
I-16
sg659
I139680
sg741
I14
sg1243
I1
sg861
I54840
sg425
I-4560
sg133
I-362880
sg1063
I72
sg207
I-319800
sg1183
I480
sg637
I4412
sg781
I71
sg537
I-71
sg495
I-3660
sg1113
I-96
sg901
I-228
sg547
I-20160
sg557
I1378
sg383
I3600
sg455
I120
sg93
I-320400
sg567
I139680
sg227
I-10081
sg217
I198700
sg801
I-71
sg103
I32870
sg587
I960
sg1033
I192
sg1273
I-14
sg1153
I480
sg53
I-40200
sg33
I630576
sg353
I-3660
sg475
I154
sg597
I-154
sg363
I154
sg649
I-20160
sg617
I4412
sg1283
I-648
sg113
I-131700
sg939
I14
sg841
I12745
sg237
I-320400
sg607
I-45134
sg247
I32870
sg279
I-120
sg1213
I1440
sg821
I1378
sg1313
I71
sg257
I-40200
sg669
I-45134
sg73
I198000
sg961
I-1570
sg627
I120
sg83
I198000
sg971
I-17760
sg881
I-1570
sg921
I-2760
sg1023
I-752
sg373
I-120
sg1093
I6792
sg1293
I244
sg911
I960
sg1193
I-2736
sg851
I-17760
sg291
I3600
ssg741
g0
(g21
tp1478
Rp1479
g691
I-252
sg163
I972
sg267
I288
sg701
I36
sg659
I900
sg741
I1
sg83
I2568
sg425
I-72
sg237
I-2736
sg207
I-1872
sg637
I60
sg495
I-170
sg901
I-10
sg279
I-6
sg557
I35
sg93
I-4404
sg567
I432
sg227
I-318
sg217
I2316
sg801
I-6
sg103
I997
sg475
I11
sg53
I-1074
sg353
I-50
sg649
I-108
sg291
I132
sg113
I-2614
sg841
I108
sg133
I-5040
sg851
I-24
sg247
I612
sg607
I-312
sg33
I6672
sg821
I72
sg257
I-432
sg73
I3828
sg861
I96
sg881
I-12
sg669
I-648
sg383
I24
ssg435
g0
(g21
tp1480
Rp1481
g435
I1
sg53
I24
sg73
I-44
sg143
I-6
sg291
I-4
sg63
I11
sg123
I-6
sg133
I24
ssg333
g0
(g21
tp1482
Rp1483
g187
I-6
sg333
I1
sg257
I24
sg83
I-44
sg383
I-4
sg133
I24
sg143
I-6
sg153
I11
ssg1253
g0
(g21
tp1484
Rp1485
g993
I-20
sg691
I-52440
sg701
I5640
sg313
I-11040
sg951
I11520
sg527
I24
sg267
I96480
sg1053
I-15
sg163
I43200
sg659
I79200
sg741
I85
sg861
I25200
sg425
I-2400
sg133
I-362880
sg207
I-222600
sg515
I35
sg637
I3080
sg1253
I1
sg537
I-705
sg495
I-5820
sg901
I-1130
sg547
I-23040
sg557
I5735
sg383
I11640
sg93
I-266400
sg567
I123720
sg227
I-23535
sg217
I222280
sg577
I-50
sg801
I-225
sg103
I48590
sg587
I1440
sg1033
I120
sg1143
I-10
sg1153
I120
sg53
I-40200
sg33
I558000
sg353
I-13210
sg475
I274
sg597
I-520
sg363
I1270
sg649
I-7200
sg617
I9800
sg1283
I-240
sg113
I-185700
sg939
I170
sg841
I17100
sg237
I-378000
sg607
I-69800
sg247
I69770
sg279
I-120
sg1213
I960
sg821
I3670
sg1313
I180
sg257
I-79800
sg669
I-44640
sg73
I198000
sg961
I-2880
sg627
I480
sg83
I270576
sg971
I-9840
sg881
I-1420
sg921
I-600
sg1023
I-840
sg373
I-840
sg1093
I2160
sg1293
I280
sg1193
I-1440
sg851
I-4800
sg291
I3600
ssg1163
g0
(g21
tp1486
Rp1487
g691
I-33000
sg20
I-1750
sg701
I4200
sg313
I-4800
sg187
I840
sg267
I64800
sg951
I4200
sg731
I-350
sg143
I576
sg343
I24
sg761
I-350
sg163
I64800
sg659
I64800
sg505
I24
sg415
I500
sg495
I-17700
sg197
I-1750
sg301
I-50
sg83
I270000
sg425
I-4800
sg237
I-302400
sg207
I-148200
sg323
I500
sg637
I5200
sg333
I-240
sg537
I-875
sg607
I-59400
sg1293
I200
sg175
I1225
sg901
I-2700
sg279
I-600
sg557
I10550
sg93
I-302400
sg567
I64800
sg63
I-1200
sg217
I230000
sg801
I-875
sg103
I98950
sg1053
I-25
sg811
I-10
sg435
I-240
sg921
I-120
sg475
I1250
sg53
I-78600
sg227
I-48025
sg1163
I1
sg353
I-17700
sg741
I250
sg43
I2500
sg485
I-50
sg363
I1250
sg649
I-7200
sg617
I5200
sg291
I10800
sg113
I-260100
sg939
I250
sg841
I18000
sg133
I-362880
sg891
I100
sg851
I-2400
sg247
I98950
sg1193
I-600
sg33
I486000
sg821
I10550
sg257
I-78600
sg1263
I-10
sg73
I270000
sg961
I-1800
sg861
I10800
sg871
I35
sg971
I-2400
sg881
I-1800
sg547
I-7200
sg373
I-600
sg1093
I600
sg123
I840
sg153
I-1200
sg669
I-59400
sg383
I10800
sg1003
I35
ssg711
g0
(g21
tp1488
Rp1489
g163
I-286
sg279
I2
sg425
I40
sg133
I720
sg207
I240
sg637
I-14
sg711
I1
sg93
I872
sg455
I-2
sg217
I-154
sg103
I-71
sg475
I-1
sg53
I238
sg649
I48
sg291
I-36
sg113
I154
sg237
I120
sg495
I14
sg33
I-960
sg73
I-684
sg83
I-120
sg911
I-4
sg669
I71
sg659
I-188
ssg791
g0
(g21
tp1490
Rp1491
g163
I2140
sg659
I940
sg711
I-10
sg425
I-340
sg237
I-1200
sg207
I-1200
sg637
I140
sg445
I-3
sg279
I-50
sg791
I1
sg93
I-5900
sg455
I20
sg227
I-225
sg217
I1540
sg801
I-15
sg103
I1385
sg465
I2
sg475
I55
sg53
I-2350
sg649
I-240
sg291
I490
sg113
I-2362
sg133
I-5040
sg495
I-395
sg247
I274
sg33
I6000
sg821
I85
sg257
I-120
sg73
I5508
sg83
I1560
sg669
I-710
sg911
I20
ssg567
g0
(g21
tp1492
Rp1493
g207
I-3
sg33
I9
sg83
I2
sg567
I1
sg133
I-6
sg237
I-3
ssg577
g0
(g21
tp1494
Rp1495
g627
I-5
sg33
I-600
sg247
I-225
sg267
I-355
sg313
I70
sg373
I20
sg257
I580
sg73
I-120
sg527
I-1
sg83
I-1044
sg353
I85
sg383
I-155
sg113
I274
sg237
I770
sg577
I1
sg363
I-15
sg133
I720
ssg1263
g0
(g21
tp1496
Rp1497
g691
I1680
sg20
I300
sg163
I-2880
sg313
I720
sg187
I-210
sg267
I-8640
sg951
I-240
sg731
I60
sg143
I-144
sg343
I-6
sg761
I35
sg659
I-2880
sg415
I-50
sg197
I385
sg301
I11
sg83
I-35520
sg237
I35160
sg207
I11520
sg323
I-110
sg333
I60
sg537
I120
sg495
I1000
sg175
I-210
sg901
I200
sg547
I720
sg557
I-1320
sg93
I23040
sg567
I-5760
sg63
I264
sg217
I-20640
sg1263
I1
sg103
I-9120
sg435
I24
sg891
I-10
sg53
I5760
sg227
I5280
sg353
I2800
sg43
I-550
sg363
I-220
sg961
I120
sg617
I-600
sg291
I-480
sg113
I29960
sg939
I-20
sg841
I-1080
sg133
I40320
sg607
I6120
sg247
I-13580
sg33
I-48480
sg821
I-700
sg257
I12120
sg73
I-25440
sg861
I-480
sg971
I120
sg373
I120
sg123
I-144
sg153
I300
sg669
I3120
sg383
I-1920
sg1003
I-6
ssg465
g0
(g21
tp1498
Rp1499
g53
I-225
sg73
I274
sg279
I-15
sg291
I85
sg133
I-120
sg465
I1
ssg1273
g0
(g21
tp1500
Rp1501
g691
I5892
sg701
I-1224
sg313
I120
sg721
I84
sg951
I-564
sg1203
I36
sg267
I-3240
sg1043
I-12
sg751
I-144
sg163
I-8472
sg659
I-15384
sg711
I26
sg741
I-1
sg83
I-17520
sg425
I768
sg237
I26160
sg1273
I1
sg637
I-616
sg781
I-9
sg495
I532
sg901
I14
sg547
I720
sg557
I-71
sg455
I-24
sg93
I39456
sg567
I-9360
sg227
I927
sg217
I-19412
sg801
I9
sg103
I-4078
sg1183
I-24
sg207
I30120
sg475
I-26
sg53
I6024
sg353
I154
sg649
I2592
sg821
I-150
sg291
I-624
sg113
I13844
sg841
I-1071
sg133
I40320
sg851
I1536
sg247
I-2514
sg279
I24
sg607
I3078
sg33
I-66480
sg1093
I-324
sg257
I2520
sg1193
I144
sg73
I-25584
sg961
I71
sg861
I-4080
sg971
I720
sg881
I162
sg921
I120
sg1293
I-14
sg617
I-154
sg669
I5266
sg383
I-120
sg911
I-144
ssg587
g0
(g21
tp1502
Rp1503
g207
I-60
sg33
I180
sg587
I1
sg313
I-3
sg257
I-24
sg267
I36
sg547
I-12
sg83
I94
sg567
I47
sg237
I-141
sg133
I-120
sg383
I2
ssg353
g0
(g21
tp1504
Rp1505
g33
I-18
sg247
I-6
sg267
I-3
sg353
I1
sg73
I-6
sg83
I-26
sg257
I9
sg383
I-1
sg113
I11
sg133
I24
sg237
I15
ssg1283
g0
(g21
tp1506
Rp1507
g691
I54
sg951
I-6
sg267
I-44
sg659
I-120
sg83
I-264
sg237
I496
sg207
I830
sg607
I11
sg547
I24
sg93
I220
sg567
I-286
sg217
I-99
sg1153
I-2
sg1213
I-4
sg1283
I1
sg113
I54
sg133
I720
sg851
I20
sg247
I-6
sg33
I-1380
sg1093
I-9
sg971
I56
sg73
I-120
sg861
I-180
sg257
I24
sg921
I10
ssg485
g0
(g21
tp1508
Rp1509
g20
I35
sg163
I-180
sg143
I-24
sg415
I-10
sg425
I20
sg435
I10
sg279
I10
sg93
I520
sg63
I50
sg103
I-350
sg475
I-10
sg53
I530
sg43
I-50
sg485
I1
sg291
I-120
sg113
I500
sg133
I720
sg495
I100
sg33
I-480
sg505
I-1
sg73
I-1020
sg83
I-240
sg123
I-35
sg153
I24
ssg113
g0
(g21
tp1510
Rp1511
g33
I-1
sg133
I2
sg73
I-1
sg113
I1
sg83
I-1
ssg1293
g0
(g21
tp1512
Rp1513
g691
I-549
sg163
I540
sg313
I-24
sg951
I63
sg267
I540
sg701
I63
sg659
I1188
sg495
I-26
sg83
I2568
sg425
I-24
sg237
I-3684
sg207
I-3234
sg637
I26
sg851
I-72
sg901
I-1
sg547
I-108
sg557
I9
sg93
I-3684
sg567
I1188
sg227
I-99
sg217
I2197
sg103
I360
sg53
I-432
sg353
I-26
sg649
I-108
sg617
I26
sg291
I24
sg113
I-1666
sg841
I108
sg133
I-5040
sg607
I-423
sg247
I360
sg33
I7932
sg821
I9
sg257
I-432
sg1193
I-9
sg73
I2568
sg961
I-9
sg861
I348
sg971
I-72
sg881
I-9
sg921
I-6
sg1093
I18
sg1293
I1
sg669
I-423
sg383
I24
ssg841
g0
(g21
tp1514
Rp1515
g691
I-4
sg163
I6
sg267
I6
sg659
I12
sg83
I54
sg237
I-66
sg207
I-48
sg93
I-66
sg567
I12
sg227
I-1
sg217
I37
sg103
I5
sg53
I-6
sg113
I-33
sg841
I1
sg133
I-120
sg607
I-5
sg247
I5
sg33
I166
sg257
I-6
sg73
I54
sg861
I2
sg669
I-5
ssg133
g0
(g21
tp1516
Rp1517
g133
I1
ssg1303
g0
(g21
tp1518
Rp1519
g691
I-52440
sg701
I11520
sg313
I-2400
sg465
I24
sg721
I-840
sg951
I5640
sg1203
I-240
sg267
I43200
sg1043
I120
sg751
I960
sg1053
I-15
sg163
I96480
sg659
I123720
sg711
I-520
sg741
I170
sg83
I198000
sg425
I-11040
sg237
I-266400
sg207
I-222600
sg637
I9800
sg781
I180
sg537
I-225
sg495
I-13210
sg445
I-50
sg901
I-1130
sg547
I-7200
sg557
I3670
sg455
I480
sg93
I-378000
sg567
I79200
sg227
I-23535
sg217
I222280
sg801
I-705
sg103
I69770
sg1183
I120
sg1273
I-20
sg475
I1270
sg53
I-79800
sg353
I-5820
sg363
I274
sg791
I35
sg649
I-23040
sg821
I5735
sg831
I-10
sg291
I11640
sg113
I-185700
sg939
I85
sg841
I17100
sg133
I-362880
sg1303
I1
sg851
I-9840
sg247
I48590
sg279
I-840
sg607
I-44640
sg33
I558000
sg1093
I2160
sg257
I-40200
sg1193
I-1440
sg73
I270576
sg961
I-1420
sg861
I25200
sg971
I-4800
sg881
I-2880
sg921
I-600
sg373
I-120
sg1293
I280
sg617
I3080
sg669
I-69800
sg383
I3600
sg911
I1440
ssg851
g0
(g21
tp1520
Rp1521
g207
I24
sg33
I-44
sg73
I-6
sg861
I-4
sg93
I11
sg659
I-6
sg133
I24
sg851
I1
ssg1213
g0
(g21
tp1522
Rp1523
g207
I-120
sg1213
I1
sg33
I220
sg971
I-9
sg267
I11
sg547
I-6
sg83
I54
sg257
I-6
sg567
I54
sg133
I-120
sg861
I20
sg237
I-99
ssg1313
g0
(g21
tp1524
Rp1525
g691
I-376
sg163
I120
sg313
I-156
sg951
I96
sg267
I1422
sg659
I480
sg83
I3828
sg237
I-5496
sg207
I-2880
sg537
I-1
sg547
I-360
sg557
I14
sg93
I-2040
sg567
I1776
sg227
I-71
sg217
I1898
sg103
I154
sg587
I24
sg53
I-120
sg1213
I12
sg353
I-86
sg597
I-5
sg363
I5
sg961
I-14
sg113
I-1522
sg841
I71
sg133
I-5040
sg607
I-643
sg247
I547
sg33
I7680
sg617
I94
sg1313
I1
sg257
I-1074
sg73
I1560
sg627
I6
sg861
I240
sg971
I-108
sg1023
I-8
sg373
I-6
sg669
I-154
sg383
I132
ssg257
g0
(g21
tp1526
Rp1527
g257
I1
sg133
I2
sg83
I-3
ssg861
g0
(g21
tp1528
Rp1529
g207
I-6
sg33
I11
sg133
I-6
sg861
I1
ssg373
g0
(g21
tp1530
Rp1531
g257
I35
sg133
I24
sg383
I-10
sg373
I1
sg83
I-50
ssg123
g0
(g21
tp1532
Rp1533
g53
I-3
sg73
I9
sg143
I2
sg63
I-3
sg123
I1
sg133
I-6
ssg627
g0
(g21
tp1534
Rp1535
g33
I120
sg313
I-14
sg257
I-71
sg267
I71
sg83
I154
sg383
I14
sg373
I-1
sg237
I-154
sg133
I-120
sg627
I1
ss.